Microsoft (R) COFF/PE Dumper Version 14.00.23026.0
Copyright (C) Microsoft Corporation.  All rights reserved.


Dump of file Console.dll

PE signature found

File Type: DLL

FILE HEADER VALUES
            8664 machine (x64)
               5 number of sections
               0 time date stamp Thu Jan  1 07:00:00 1970
               0 file pointer to symbol table
               0 number of symbols
              F0 size of optional header
            2022 characteristics
                   Executable
                   Application can handle large (>2GB) addresses
                   DLL

OPTIONAL HEADER VALUES
             20B magic # (PE32+)
            0.00 linker version
            1000 size of code
            1600 size of initialized data
               0 size of uninitialized data
            2E9A entry point (0000000010002E9A)
            2000 base of code
        10000000 image base (0000000010000000 to 0000000010005FFF)
            1000 section alignment
             200 file alignment
            5.00 operating system version
            0.00 image version
            5.00 subsystem version
               0 Win32 version
            6000 size of image
             400 size of headers
               0 checksum
               2 subsystem (Windows GUI)
             140 DLL characteristics
                   Dynamic base
                   NX compatible
            1000 size of stack reserve
            1000 size of stack commit
           10000 size of heap reserve
               0 size of heap commit
               0 loader flags
              10 number of directories
            5000 [      58] RVA [size] of Export Directory
            3000 [     130] RVA [size] of Import Directory
               0 [       0] RVA [size] of Resource Directory
               0 [       0] RVA [size] of Exception Directory
               0 [       0] RVA [size] of Certificates Directory
            4000 [       C] RVA [size] of Base Relocation Directory
               0 [       0] RVA [size] of Debug Directory
               0 [       0] RVA [size] of Architecture Directory
               0 [       0] RVA [size] of Global Pointer Directory
               0 [       0] RVA [size] of Thread Storage Directory
               0 [       0] RVA [size] of Load Configuration Directory
               0 [       0] RVA [size] of Bound Import Directory
               0 [       0] RVA [size] of Import Address Table Directory
               0 [       0] RVA [size] of Delay Import Directory
               0 [       0] RVA [size] of COM Descriptor Directory
               0 [       0] RVA [size] of Reserved Directory


SECTION HEADER #1
   .data name
    1000 virtual size
    1000 virtual address (0000000010001000 to 0000000010001FFF)
    1000 size of raw data
    1600 file pointer to raw data (00001600 to 000025FF)
       0 file pointer to relocation table
       0 file pointer to line numbers
       0 number of relocations
       0 number of line numbers
C0000040 flags
         Initialized Data
         Read Write

RAW DATA #1
  0000000010001000: 00 00 00 00 00 00 00 00 00 00 00 00 00 00 00 00  ................
  0000000010001010: 00 00 00 00 00 00 00 00 00 00 00 00 00 00 00 00  ................
  0000000010001020: 00 00 00 00 00 00 00 00 00 00 00 00 00 00 00 00  ................
  0000000010001030: 00 00 00 00 00 00 00 00 00 00 00 00 00 00 00 00  ................
  0000000010001040: 00 00 00 00 00 00 00 00 00 00 00 00 00 00 00 00  ................
  0000000010001050: 00 00 00 00 00 00 00 00 00 00 00 00 00 00 00 00  ................
  0000000010001060: 00 00 00 00 00 00 00 00 00 00 00 00 00 00 00 00  ................
  0000000010001070: 00 00 00 00 00 00 00 00 00 00 00 00 00 00 00 00  ................
  0000000010001080: 00 00 00 00 00 00 00 00 00 00 00 00 00 00 00 00  ................
  0000000010001090: 00 00 00 00 00 00 00 00 00 00 00 00 00 00 00 00  ................
  00000000100010A0: 00 00 00 00 00 00 00 00 00 00 00 00 00 00 00 00  ................
  00000000100010B0: 00 00 00 00 00 00 00 00 00 00 00 00 00 00 00 00  ................
  00000000100010C0: 00 00 00 00 00 00 00 00 00 00 00 00 00 00 00 00  ................
  00000000100010D0: 00 00 00 00 00 00 00 00 00 00 00 00 00 00 00 00  ................
  00000000100010E0: 00 00 00 00 00 00 00 00 00 00 00 00 00 00 00 00  ................
  00000000100010F0: 00 00 00 00 00 00 00 00 00 00 00 00 00 00 00 00  ................
  0000000010001100: 00 00 00 00 00 00 00 00 00 00 00 00 00 00 00 00  ................
  0000000010001110: 00 00 00 00 00 00 00 00 00 00 00 00 00 00 00 00  ................
  0000000010001120: 00 00 00 00 00 00 00 00 00 00 00 00 00 00 00 00  ................
  0000000010001130: 00 00 00 00 00 00 00 00 00 00 00 00 00 00 00 00  ................
  0000000010001140: 00 00 00 00 00 00 00 00 00 00 00 00 00 00 00 00  ................
  0000000010001150: 00 00 00 00 00 00 00 00 00 00 00 00 00 00 00 00  ................
  0000000010001160: 00 00 00 00 00 00 00 00 00 00 00 00 00 00 00 00  ................
  0000000010001170: 00 00 00 00 00 00 00 00 00 00 00 00 00 00 00 00  ................
  0000000010001180: 00 00 00 00 00 00 00 00 00 00 00 00 00 00 00 00  ................
  0000000010001190: 00 00 00 00 00 00 00 00 00 00 00 00 00 00 00 00  ................
  00000000100011A0: 00 00 00 00 00 00 00 00 00 00 00 00 00 00 00 00  ................
  00000000100011B0: 00 00 00 00 00 00 00 00 00 00 00 00 00 00 00 00  ................
  00000000100011C0: 00 00 00 00 00 00 00 00 00 00 00 00 00 00 00 00  ................
  00000000100011D0: 00 00 00 00 00 00 00 00 00 00 00 00 00 00 00 00  ................
  00000000100011E0: 00 00 00 00 00 00 00 00 00 00 00 00 00 00 00 00  ................
  00000000100011F0: 00 00 00 00 00 00 00 00 00 00 00 00 00 00 00 00  ................
  0000000010001200: 00 00 00 00 00 00 00 00 00 00 00 00 00 00 00 00  ................
  0000000010001210: 00 00 00 00 00 00 00 00 00 00 00 00 00 00 00 00  ................
  0000000010001220: 00 00 00 00 00 00 00 00 00 00 00 00 00 00 00 00  ................
  0000000010001230: 00 00 00 00 00 00 00 00 00 00 00 00 00 00 00 00  ................
  0000000010001240: 00 00 00 00 00 00 00 00 00 00 00 00 00 00 00 00  ................
  0000000010001250: 00 00 00 00 00 00 00 00 00 00 00 00 00 00 00 00  ................
  0000000010001260: 00 00 00 00 00 00 00 00 00 00 00 00 00 00 00 00  ................
  0000000010001270: 00 00 00 00 00 00 00 00 00 00 00 00 00 00 00 00  ................
  0000000010001280: 00 00 00 00 00 00 00 00 00 00 00 00 00 00 00 00  ................
  0000000010001290: 00 00 00 00 00 00 00 00 00 00 00 00 00 00 00 00  ................
  00000000100012A0: 00 00 00 00 00 00 00 00 00 00 00 00 00 00 00 00  ................
  00000000100012B0: 00 00 00 00 00 00 00 00 00 00 00 00 00 00 00 00  ................
  00000000100012C0: 00 00 00 00 00 00 00 00 00 00 00 00 00 00 00 00  ................
  00000000100012D0: 00 00 00 00 00 00 00 00 00 00 00 00 00 00 00 00  ................
  00000000100012E0: 00 00 00 00 00 00 00 00 00 00 00 00 00 00 00 00  ................
  00000000100012F0: 00 00 00 00 00 00 00 00 00 00 00 00 00 00 00 00  ................
  0000000010001300: 00 00 00 00 00 00 00 00 00 00 00 00 00 00 00 00  ................
  0000000010001310: 00 00 00 00 00 00 00 00 00 00 00 00 00 00 00 00  ................
  0000000010001320: 00 00 00 00 00 00 00 00 00 00 00 00 00 00 00 00  ................
  0000000010001330: 00 00 00 00 00 00 00 00 00 00 00 00 00 00 00 00  ................
  0000000010001340: 00 00 00 00 00 00 00 00 00 00 00 00 00 00 00 00  ................
  0000000010001350: 00 00 00 00 00 00 00 00 00 00 00 00 00 00 00 00  ................
  0000000010001360: 00 00 00 00 00 00 00 00 00 00 00 00 00 00 00 00  ................
  0000000010001370: 00 00 00 00 00 00 00 00 00 00 00 00 00 00 00 00  ................
  0000000010001380: 00 00 00 00 00 00 00 00 00 00 00 00 00 00 00 00  ................
  0000000010001390: 00 00 00 00 00 00 00 00 00 00 00 00 00 00 00 00  ................
  00000000100013A0: 00 00 00 00 00 00 00 00 00 00 00 00 00 00 00 00  ................
  00000000100013B0: 00 00 00 00 00 00 00 00 00 00 00 00 00 00 00 00  ................
  00000000100013C0: 00 00 00 00 00 00 00 00 00 00 00 00 00 00 00 00  ................
  00000000100013D0: 00 00 00 00 00 00 00 00 00 00 00 00 00 00 00 00  ................
  00000000100013E0: 00 00 00 00 00 00 00 00 00 00 00 00 00 00 00 00  ................
  00000000100013F0: 00 00 00 00 00 00 00 00 00 00 00 00 00 00 00 00  ................
  0000000010001400: 00 00 00 00 00 00 00 00 00 00 00 00 00 00 00 00  ................
  0000000010001410: 00 00 00 00 00 00 00 00 00 00 00 00 00 00 00 00  ................
  0000000010001420: 00 00 00 00 00 00 00 00 00 00 00 00 00 00 00 00  ................
  0000000010001430: 00 00 00 00 00 00 00 00 00 00 00 00 00 00 00 00  ................
  0000000010001440: 00 00 00 00 00 00 00 00 00 00 00 00 00 00 00 00  ................
  0000000010001450: 00 00 00 00 00 00 00 00 00 00 00 00 00 00 00 00  ................
  0000000010001460: 00 00 00 00 00 00 00 00 00 00 00 00 00 00 00 00  ................
  0000000010001470: 00 00 00 00 00 00 00 00 00 00 00 00 00 00 00 00  ................
  0000000010001480: 00 00 00 00 00 00 00 00 00 00 00 00 00 00 00 00  ................
  0000000010001490: 00 00 00 00 00 00 00 00 00 00 00 00 00 00 00 00  ................
  00000000100014A0: 00 00 00 00 00 00 00 00 00 00 00 00 00 00 00 00  ................
  00000000100014B0: 00 00 00 00 00 00 00 00 00 00 00 00 00 00 00 00  ................
  00000000100014C0: 00 00 00 00 00 00 00 00 00 00 00 00 00 00 00 00  ................
  00000000100014D0: 00 00 00 00 00 00 00 00 00 00 00 00 00 00 00 00  ................
  00000000100014E0: 00 00 00 00 00 00 00 00 00 00 00 00 00 00 00 00  ................
  00000000100014F0: 00 00 00 00 00 00 00 00 00 00 00 00 00 00 00 00  ................
  0000000010001500: 00 00 00 00 00 00 00 00 00 00 00 00 00 00 00 00  ................
  0000000010001510: 00 00 00 00 00 00 00 00 00 00 00 00 00 00 00 00  ................
  0000000010001520: 00 00 00 00 00 00 00 00 00 00 00 00 00 00 00 00  ................
  0000000010001530: 00 00 00 00 00 00 00 00 00 00 00 00 00 00 00 00  ................
  0000000010001540: 00 00 00 00 00 00 00 00 00 00 00 00 00 00 00 00  ................
  0000000010001550: 00 00 00 00 00 00 00 00 00 00 00 00 00 00 00 00  ................
  0000000010001560: 00 00 00 00 00 00 00 00 00 00 00 00 00 00 00 00  ................
  0000000010001570: 00 00 00 00 00 00 00 00 00 00 00 00 00 00 00 00  ................
  0000000010001580: 00 00 00 00 00 00 00 00 00 00 00 00 00 00 00 00  ................
  0000000010001590: 00 00 00 00 00 00 00 00 00 00 00 00 00 00 00 00  ................
  00000000100015A0: 00 00 00 00 00 00 00 00 00 00 00 00 00 00 00 00  ................
  00000000100015B0: 00 00 00 00 00 00 00 00 00 00 00 00 00 00 00 00  ................
  00000000100015C0: 00 00 00 00 00 00 00 00 00 00 00 00 00 00 00 00  ................
  00000000100015D0: 00 00 00 00 00 00 00 00 00 00 00 00 00 00 00 00  ................
  00000000100015E0: 00 00 00 00 00 00 00 00 00 00 00 00 00 00 00 00  ................
  00000000100015F0: 00 00 00 00 00 00 00 00 00 00 00 00 00 00 00 00  ................
  0000000010001600: 00 00 00 00 00 00 00 00 00 00 00 00 00 00 00 00  ................
  0000000010001610: 00 00 00 00 00 00 00 00 00 00 00 00 00 00 00 00  ................
  0000000010001620: 00 00 00 00 00 00 00 00 00 00 00 00 00 00 00 00  ................
  0000000010001630: 00 00 00 00 00 00 00 00 00 00 00 00 00 00 00 00  ................
  0000000010001640: 00 00 00 00 00 00 00 00 00 00 00 00 00 00 00 00  ................
  0000000010001650: 00 00 00 00 00 00 00 00 00 00 00 00 00 00 00 00  ................
  0000000010001660: 00 00 00 00 00 00 00 00 00 00 00 00 00 00 00 00  ................
  0000000010001670: 00 00 00 00 00 00 00 00 00 00 00 00 00 00 00 00  ................
  0000000010001680: 00 00 00 00 00 00 00 00 00 00 00 00 00 00 00 00  ................
  0000000010001690: 00 00 00 00 00 00 00 00 00 00 00 00 00 00 00 00  ................
  00000000100016A0: 00 00 00 00 00 00 00 00 00 00 00 00 00 00 00 00  ................
  00000000100016B0: 00 00 00 00 00 00 00 00 00 00 00 00 00 00 00 00  ................
  00000000100016C0: 00 00 00 00 00 00 00 00 00 00 00 00 00 00 00 00  ................
  00000000100016D0: 00 00 00 00 00 00 00 00 00 00 00 00 00 00 00 00  ................
  00000000100016E0: 00 00 00 00 00 00 00 00 00 00 00 00 00 00 00 00  ................
  00000000100016F0: 00 00 00 00 00 00 00 00 00 00 00 00 00 00 00 00  ................
  0000000010001700: 00 00 00 00 00 00 00 00 00 00 00 00 00 00 00 00  ................
  0000000010001710: 00 00 00 00 00 00 00 00 00 00 00 00 00 00 00 00  ................
  0000000010001720: 00 00 00 00 00 00 00 00 00 00 00 00 00 00 00 00  ................
  0000000010001730: 00 00 00 00 00 00 00 00 00 00 00 00 00 00 00 00  ................
  0000000010001740: 00 00 00 00 00 00 00 00 00 00 00 00 00 00 00 00  ................
  0000000010001750: 00 00 00 00 00 00 00 00 00 00 00 00 00 00 00 00  ................
  0000000010001760: 00 00 00 00 00 00 00 00 00 00 00 00 00 00 00 00  ................
  0000000010001770: 00 00 00 00 00 00 00 00 00 00 00 00 00 00 00 00  ................
  0000000010001780: 00 00 00 00 00 00 00 00 00 00 00 00 00 00 00 00  ................
  0000000010001790: 00 00 00 00 00 00 00 00 00 00 00 00 00 00 00 00  ................
  00000000100017A0: 00 00 00 00 00 00 00 00 00 00 00 00 00 00 00 00  ................
  00000000100017B0: 00 00 00 00 00 00 00 00 00 00 00 00 00 00 00 00  ................
  00000000100017C0: 00 00 00 00 00 00 00 00 00 00 00 00 00 00 00 00  ................
  00000000100017D0: 00 00 00 00 00 00 00 00 00 00 00 00 00 00 00 00  ................
  00000000100017E0: 00 00 00 00 00 00 00 00 00 00 00 00 00 00 00 00  ................
  00000000100017F0: 00 00 00 00 00 00 00 00 00 00 00 00 00 00 00 00  ................
  0000000010001800: 00 00 00 00 00 00 00 00 00 00 00 00 00 00 00 00  ................
  0000000010001810: 00 00 00 00 00 00 00 00 00 00 00 00 00 00 00 00  ................
  0000000010001820: 00 00 00 00 00 00 00 00 00 00 00 00 00 00 00 00  ................
  0000000010001830: 00 00 00 00 00 00 00 00 00 00 00 00 00 00 00 00  ................
  0000000010001840: 00 00 00 00 00 00 00 00 00 00 00 00 00 00 00 00  ................
  0000000010001850: 00 00 00 00 00 00 00 00 00 00 00 00 00 00 00 00  ................
  0000000010001860: 00 00 00 00 00 00 00 00 00 00 00 00 00 00 00 00  ................
  0000000010001870: 00 00 00 00 00 00 00 00 00 00 00 00 00 00 00 00  ................
  0000000010001880: 00 00 00 00 00 00 00 00 00 00 00 00 00 00 00 00  ................
  0000000010001890: 00 00 00 00 00 00 00 00 00 00 00 00 00 00 00 00  ................
  00000000100018A0: 00 00 00 00 00 00 00 00 00 00 00 00 00 00 00 00  ................
  00000000100018B0: 00 00 00 00 00 00 00 00 00 00 00 00 00 00 00 00  ................
  00000000100018C0: 00 00 00 00 00 00 00 00 00 00 00 00 00 00 00 00  ................
  00000000100018D0: 00 00 00 00 00 00 00 00 00 00 00 00 00 00 00 00  ................
  00000000100018E0: 00 00 00 00 00 00 00 00 00 00 00 00 00 00 00 00  ................
  00000000100018F0: 00 00 00 00 00 00 00 00 00 00 00 00 00 00 00 00  ................
  0000000010001900: 00 00 00 00 00 00 00 00 00 00 00 00 00 00 00 00  ................
  0000000010001910: 00 00 00 00 00 00 00 00 00 00 00 00 00 00 00 00  ................
  0000000010001920: 00 00 00 00 00 00 00 00 00 00 00 00 00 00 00 00  ................
  0000000010001930: 00 00 00 00 00 00 00 00 00 00 00 00 00 00 00 00  ................
  0000000010001940: 00 00 00 00 00 00 00 00 00 00 00 00 00 00 00 00  ................
  0000000010001950: 00 00 00 00 00 00 00 00 00 00 00 00 00 00 00 00  ................
  0000000010001960: 00 00 00 00 00 00 00 00 00 00 00 00 00 00 00 00  ................
  0000000010001970: 00 00 00 00 00 00 00 00 00 00 00 00 00 00 00 00  ................
  0000000010001980: 00 00 00 00 00 00 00 00 00 00 00 00 00 00 00 00  ................
  0000000010001990: 00 00 00 00 00 00 00 00 00 00 00 00 00 00 00 00  ................
  00000000100019A0: 00 00 00 00 00 00 00 00 00 00 00 00 00 00 00 00  ................
  00000000100019B0: 00 00 00 00 00 00 00 00 00 00 00 00 00 00 00 00  ................
  00000000100019C0: 00 00 00 00 00 00 00 00 00 00 00 00 00 00 00 00  ................
  00000000100019D0: 00 00 00 00 00 00 00 00 00 00 00 00 00 00 00 00  ................
  00000000100019E0: 00 00 00 00 00 00 00 00 00 00 00 00 00 00 00 00  ................
  00000000100019F0: 00 00 00 00 00 00 00 00 00 00 00 00 00 00 00 00  ................
  0000000010001A00: 00 00 00 00 00 00 00 00 00 00 00 00 00 00 00 00  ................
  0000000010001A10: 00 00 00 00 00 00 00 00 00 00 00 00 00 00 00 00  ................
  0000000010001A20: 00 00 00 00 00 00 00 00 00 00 00 00 00 00 00 00  ................
  0000000010001A30: 00 00 00 00 00 00 00 00 00 00 00 00 00 00 00 00  ................
  0000000010001A40: 00 00 00 00 00 00 00 00 00 00 00 00 00 00 00 00  ................
  0000000010001A50: 00 00 00 00 00 00 00 00 00 00 00 00 00 00 00 00  ................
  0000000010001A60: 00 00 00 00 00 00 00 00 00 00 00 00 00 00 00 00  ................
  0000000010001A70: 00 00 00 00 00 00 00 00 00 00 00 00 00 00 00 00  ................
  0000000010001A80: 00 00 00 00 00 00 00 00 00 00 00 00 00 00 00 00  ................
  0000000010001A90: 00 00 00 00 00 00 00 00 00 00 00 00 00 00 00 00  ................
  0000000010001AA0: 00 00 00 00 00 00 00 00 00 00 00 00 00 00 00 00  ................
  0000000010001AB0: 00 00 00 00 00 00 00 00 00 00 00 00 00 00 00 00  ................
  0000000010001AC0: 00 00 00 00 00 00 00 00 00 00 00 00 00 00 00 00  ................
  0000000010001AD0: 00 00 00 00 00 00 00 00 00 00 00 00 00 00 00 00  ................
  0000000010001AE0: 00 00 00 00 00 00 00 00 00 00 00 00 00 00 00 00  ................
  0000000010001AF0: 00 00 00 00 00 00 00 00 00 00 00 00 00 00 00 00  ................
  0000000010001B00: 00 00 00 00 00 00 00 00 00 00 00 00 00 00 00 00  ................
  0000000010001B10: 00 00 00 00 00 00 00 00 00 00 00 00 00 00 00 00  ................
  0000000010001B20: 00 00 00 00 00 00 00 00 00 00 00 00 00 00 00 00  ................
  0000000010001B30: 00 00 00 00 00 00 00 00 00 00 00 00 00 00 00 00  ................
  0000000010001B40: 00 00 00 00 00 00 00 00 00 00 00 00 00 00 00 00  ................
  0000000010001B50: 00 00 00 00 00 00 00 00 00 00 00 00 00 00 00 00  ................
  0000000010001B60: 00 00 00 00 00 00 00 00 00 00 00 00 00 00 00 00  ................
  0000000010001B70: 00 00 00 00 00 00 00 00 00 00 00 00 00 00 00 00  ................
  0000000010001B80: 00 00 00 00 00 00 00 00 00 00 00 00 00 00 00 00  ................
  0000000010001B90: 00 00 00 00 00 00 00 00 00 00 00 00 00 00 00 00  ................
  0000000010001BA0: 00 00 00 00 00 00 00 00 00 00 00 00 00 00 00 00  ................
  0000000010001BB0: 00 00 00 00 00 00 00 00 00 00 00 00 00 00 00 00  ................
  0000000010001BC0: 00 00 00 00 00 00 00 00 00 00 00 00 00 00 00 00  ................
  0000000010001BD0: 00 00 00 00 00 00 00 00 00 00 00 00 00 00 00 00  ................
  0000000010001BE0: 00 00 00 00 00 00 00 00 00 00 00 00 00 00 00 00  ................
  0000000010001BF0: 00 00 00 00 00 00 00 00 00 00 00 00 00 00 00 00  ................
  0000000010001C00: 00 00 00 00 00 00 00 00 00 00 00 00 00 00 00 00  ................
  0000000010001C10: 00 00 00 00 00 00 00 00 00 00 00 00 00 00 00 00  ................
  0000000010001C20: 00 00 00 00 00 00 00 00 00 00 00 00 00 00 00 00  ................
  0000000010001C30: 00 00 00 00 00 00 00 00 00 00 00 00 00 00 00 00  ................
  0000000010001C40: 00 00 00 00 00 00 00 00 00 00 00 00 00 00 00 00  ................
  0000000010001C50: 00 00 00 00 00 00 00 00 00 00 00 00 00 00 00 00  ................
  0000000010001C60: 00 00 00 00 00 00 00 00 00 00 00 00 00 00 00 00  ................
  0000000010001C70: 00 00 00 00 00 00 00 00 00 00 00 00 00 00 00 00  ................
  0000000010001C80: 00 00 00 00 00 00 00 00 00 00 00 00 00 00 00 00  ................
  0000000010001C90: 00 00 00 00 00 00 00 00 00 00 00 00 00 00 00 00  ................
  0000000010001CA0: 00 00 00 00 00 00 00 00 00 00 00 00 00 00 00 00  ................
  0000000010001CB0: 00 00 00 00 00 00 00 00 00 00 00 00 00 00 00 00  ................
  0000000010001CC0: 00 00 00 00 00 00 00 00 00 00 00 00 00 00 00 00  ................
  0000000010001CD0: 00 00 00 00 00 00 00 00 00 00 00 00 00 00 00 00  ................
  0000000010001CE0: 00 00 00 00 00 00 00 00 00 00 00 00 00 00 00 00  ................
  0000000010001CF0: 00 00 00 00 00 00 00 00 00 00 00 00 00 00 00 00  ................
  0000000010001D00: 00 00 00 00 00 00 00 00 00 00 00 00 00 00 00 00  ................
  0000000010001D10: 00 00 00 00 00 00 00 00 00 00 00 00 00 00 00 00  ................
  0000000010001D20: 00 00 00 00 00 00 00 00 00 00 00 00 00 00 00 00  ................
  0000000010001D30: 00 00 00 00 00 00 00 00 00 00 00 00 00 00 00 00  ................
  0000000010001D40: 00 00 00 00 00 00 00 00 00 00 00 00 00 00 00 00  ................
  0000000010001D50: 00 00 00 00 00 00 00 00 00 00 00 00 00 00 00 00  ................
  0000000010001D60: 00 00 00 00 00 00 00 00 00 00 00 00 00 00 00 00  ................
  0000000010001D70: 00 00 00 00 00 00 00 00 00 00 00 00 00 00 00 00  ................
  0000000010001D80: 00 00 00 00 00 00 00 00 00 00 00 00 00 00 00 00  ................
  0000000010001D90: 00 00 00 00 00 00 00 00 00 00 00 00 00 00 00 00  ................
  0000000010001DA0: 00 00 00 00 00 00 00 00 00 00 00 00 00 00 00 00  ................
  0000000010001DB0: 00 00 00 00 00 00 00 00 00 00 00 00 00 00 00 00  ................
  0000000010001DC0: 00 00 00 00 00 00 00 00 00 00 00 00 00 00 00 00  ................
  0000000010001DD0: 00 00 00 00 00 00 00 00 00 00 00 00 00 00 00 00  ................
  0000000010001DE0: 00 00 00 00 00 00 00 00 00 00 00 00 00 00 00 00  ................
  0000000010001DF0: 00 00 00 00 00 00 00 00 00 00 00 00 00 00 00 00  ................
  0000000010001E00: 00 00 00 00 00 00 00 00 00 00 00 00 00 00 00 00  ................
  0000000010001E10: 00 00 00 00 00 00 00 00 00 00 00 00 00 00 00 00  ................
  0000000010001E20: 00 00 00 00 00 00 00 00 00 00 00 00 00 00 00 00  ................
  0000000010001E30: 00 00 00 00 00 00 00 00 00 00 00 00 00 00 00 00  ................
  0000000010001E40: 00 00 00 00 00 00 00 00 00 00 00 00 00 00 00 00  ................
  0000000010001E50: 00 00 00 00 00 00 00 00 00 00 00 00 00 00 00 00  ................
  0000000010001E60: 00 00 00 00 00 00 00 00 00 00 00 00 00 00 00 00  ................
  0000000010001E70: 00 00 00 00 00 00 00 00 00 00 00 00 00 00 00 00  ................
  0000000010001E80: 00 00 00 00 00 00 00 00 00 00 00 00 00 00 00 00  ................
  0000000010001E90: 00 00 00 00 00 00 00 00 00 00 00 00 00 00 00 00  ................
  0000000010001EA0: 00 00 00 00 00 00 00 00 00 00 00 00 00 00 00 00  ................
  0000000010001EB0: 00 00 00 00 00 00 00 00 00 00 00 00 00 00 00 00  ................
  0000000010001EC0: 00 00 57 00 69 00 6E 00 41 00 70 00 69 00 2E 00  ..W.i.n.A.p.i...
  0000000010001ED0: 64 00 6C 00 6C 00 00 00 53 00 74 00 72 00 69 00  d.l.l...S.t.r.i.
  0000000010001EE0: 6E 00 67 00 73 00 2E 00 64 00 6C 00 6C 00 00 00  n.g.s...d.l.l...
  0000000010001EF0: 00 00 00 00 00 00 00 00 00 00 00 00 00 00 00 00  ................
  0000000010001F00: 00 00 00 00 00 00 00 00 00 00 65 00 00 00 30 00  ..........e...0.
  0000000010001F10: 00 00 2E 00 00 00 30 00 00 00 2D 00 00 00 41 00  ......0...-...A.
  0000000010001F20: 00 00 30 00 00 00 2D 00 39 00 32 00 32 00 33 00  ..0...-.9.2.2.3.
  0000000010001F30: 33 00 37 00 32 00 30 00 33 00 36 00 38 00 35 00  3.7.2.0.3.6.8.5.
  0000000010001F40: 34 00 37 00 37 00 35 00 38 00 30 00 38 00 00 00  4.7.7.5.8.0.8...
  0000000010001F50: 00 00 00 00 00 00 00 00 2D 00 00 00 30 00 00 00  ........-...0...
  0000000010001F60: 00 00 00 00 00 00 00 00 00 00 00 00 00 00 00 00  ................
  0000000010001F70: 00 00 00 00 00 00 00 00 00 00 00 00 00 00 00 00  ................
  0000000010001F80: 00 00 00 00 00 00 00 00 00 00 00 00 00 00 00 00  ................
  0000000010001F90: 00 00 00 00 00 00 00 00 00 00 00 00 00 00 00 00  ................
  0000000010001FA0: 00 00 00 00 00 00 00 00 00 00 00 00 00 00 00 00  ................
  0000000010001FB0: 00 00 00 00 00 00 00 00 70 30 00 00 00 00 00 00  ........p0......
  0000000010001FC0: 90 30 00 00 00 00 00 00 B0 30 00 00 00 00 00 00  .0......°0......
  0000000010001FD0: D0 30 00 00 00 00 00 00 F0 30 00 00 00 00 00 00  ?0......?0......
  0000000010001FE0: 10 31 00 00 00 00 00 00 00 00 00 00 00 00 00 00  .1..............
  0000000010001FF0: 00 00 00 00 00 00 00 00 00 00 00 00 00 00 00 00  ................

SECTION HEADER #2
   .text name
     FF6 virtual size
    2000 virtual address (0000000010002000 to 0000000010002FF5)
    1000 size of raw data
     400 file pointer to raw data (00000400 to 000013FF)
       0 file pointer to relocation table
       0 file pointer to line numbers
       0 number of relocations
       0 number of line numbers
60000020 flags
         Code
         Execute Read

  0000000010002000: 55                 push        rbp
  0000000010002001: 48 8B EC           mov         rbp,rsp
  0000000010002004: 48 83 EC 10        sub         rsp,10h
  0000000010002008: 48 89 4D 10        mov         qword ptr [rbp+10h],rcx
  000000001000200C: 48 8B 0D 55 FF FF  mov         rcx,qword ptr [0000000010001F68h]
                    FF
  0000000010002013: 48 8B 09           mov         rcx,qword ptr [rcx]
  0000000010002016: 51                 push        rcx
  0000000010002017: 48 83 EC 28        sub         rsp,28h
  000000001000201B: 48 8B 0D CE FF FF  mov         rcx,qword ptr [0000000010001FF0h]
                    FF
  0000000010002022: 48 8D 55 10        lea         rdx,[rbp+10h]
  0000000010002026: 41 B8 01 00 00 00  mov         r8d,1
  000000001000202C: 4C 8D 4D FC        lea         r9,[rbp-4]
  0000000010002030: 31 C0              xor         eax,eax
  0000000010002032: 48 89 44 24 20     mov         qword ptr [rsp+20h],rax
  0000000010002037: 48 8B 44 24 28     mov         rax,qword ptr [rsp+28h]
  000000001000203C: FF D0              call        rax
  000000001000203E: 48 83 C4 30        add         rsp,30h
  0000000010002042: 89 45 F8           mov         dword ptr [rbp-8],eax
  0000000010002045: 8B 45 F8           mov         eax,dword ptr [rbp-8]
  0000000010002048: 48 85 C0           test        rax,rax
  000000001000204B: 0F 84 05 00 00 00  je          0000000010002056
  0000000010002051: E9 08 00 00 00     jmp         000000001000205E
  0000000010002056: B0 03              mov         al,3
  0000000010002058: B9 50 01 00 00     mov         ecx,150h
  000000001000205D: CC                 int         3
  000000001000205E: 8B 45 FC           mov         eax,dword ptr [rbp-4]
  0000000010002061: 48 83 F8 01        cmp         rax,1
  0000000010002065: 0F 85 05 00 00 00  jne         0000000010002070
  000000001000206B: E9 08 00 00 00     jmp         0000000010002078
  0000000010002070: B0 03              mov         al,3
  0000000010002072: B9 67 01 00 00     mov         ecx,167h
  0000000010002077: CC                 int         3
  0000000010002078: C9                 leave
  0000000010002079: C3                 ret
  000000001000207A: 55                 push        rbp
  000000001000207B: 48 8B EC           mov         rbp,rsp
  000000001000207E: 48 83 EC 10        sub         rsp,10h
  0000000010002082: B8 0D 00 00 00     mov         eax,0Dh
  0000000010002087: 66 89 45 FC        mov         word ptr [rbp-4],ax
  000000001000208B: B8 0A 00 00 00     mov         eax,0Ah
  0000000010002090: 66 89 45 FE        mov         word ptr [rbp-2],ax
  0000000010002094: 48 8B 0D CD FE FF  mov         rcx,qword ptr [0000000010001F68h]
                    FF
  000000001000209B: 48 8B 09           mov         rcx,qword ptr [rcx]
  000000001000209E: 51                 push        rcx
  000000001000209F: 48 83 EC 28        sub         rsp,28h
  00000000100020A3: 48 8B 0D 46 FF FF  mov         rcx,qword ptr [0000000010001FF0h]
                    FF
  00000000100020AA: 48 8D 55 FC        lea         rdx,[rbp-4]
  00000000100020AE: 41 B8 02 00 00 00  mov         r8d,2
  00000000100020B4: 4C 8D 4D F8        lea         r9,[rbp-8]
  00000000100020B8: 31 C0              xor         eax,eax
  00000000100020BA: 48 89 44 24 20     mov         qword ptr [rsp+20h],rax
  00000000100020BF: 48 8B 44 24 28     mov         rax,qword ptr [rsp+28h]
  00000000100020C4: FF D0              call        rax
  00000000100020C6: 48 83 C4 30        add         rsp,30h
  00000000100020CA: 89 45 F4           mov         dword ptr [rbp-0Ch],eax
  00000000100020CD: 8B 45 F4           mov         eax,dword ptr [rbp-0Ch]
  00000000100020D0: 48 85 C0           test        rax,rax
  00000000100020D3: 0F 84 05 00 00 00  je          00000000100020DE
  00000000100020D9: E9 08 00 00 00     jmp         00000000100020E6
  00000000100020DE: B0 03              mov         al,3
  00000000100020E0: B9 69 02 00 00     mov         ecx,269h
  00000000100020E5: CC                 int         3
  00000000100020E6: 8B 45 F8           mov         eax,dword ptr [rbp-8]
  00000000100020E9: 48 83 F8 02        cmp         rax,2
  00000000100020ED: 0F 85 05 00 00 00  jne         00000000100020F8
  00000000100020F3: E9 08 00 00 00     jmp         0000000010002100
  00000000100020F8: B0 03              mov         al,3
  00000000100020FA: B9 80 02 00 00     mov         ecx,280h
  00000000100020FF: CC                 int         3
  0000000010002100: C9                 leave
  0000000010002101: C3                 ret
  0000000010002102: 55                 push        rbp
  0000000010002103: 48 8B EC           mov         rbp,rsp
  0000000010002106: 48 83 EC 10        sub         rsp,10h
  000000001000210A: 48 89 4D 10        mov         qword ptr [rbp+10h],rcx
  000000001000210E: 48 89 55 18        mov         qword ptr [rbp+18h],rdx
  0000000010002112: 48 8B 0D 4F FE FF  mov         rcx,qword ptr [0000000010001F68h]
                    FF
  0000000010002119: 48 8B 09           mov         rcx,qword ptr [rcx]
  000000001000211C: 51                 push        rcx
  000000001000211D: 48 83 EC 28        sub         rsp,28h
  0000000010002121: 48 8B 0D C8 FE FF  mov         rcx,qword ptr [0000000010001FF0h]
                    FF
  0000000010002128: 48 8B 55 10        mov         rdx,qword ptr [rbp+10h]
  000000001000212C: 51                 push        rcx
  000000001000212D: 52                 push        rdx
  000000001000212E: 48 83 EC 20        sub         rsp,20h
  0000000010002132: 48 8B 4D 10        mov         rcx,qword ptr [rbp+10h]
  0000000010002136: 48 8B 55 18        mov         rdx,qword ptr [rbp+18h]
  000000001000213A: FF 15 20 FE FF FF  call        qword ptr [0000000010001F60h]
  0000000010002140: 48 83 C4 20        add         rsp,20h
  0000000010002144: 5A                 pop         rdx
  0000000010002145: 59                 pop         rcx
  0000000010002146: 4C 8B C0           mov         r8,rax
  0000000010002149: 4C 8D 4D FC        lea         r9,[rbp-4]
  000000001000214D: 31 C0              xor         eax,eax
  000000001000214F: 48 89 44 24 20     mov         qword ptr [rsp+20h],rax
  0000000010002154: 48 8B 44 24 28     mov         rax,qword ptr [rsp+28h]
  0000000010002159: FF D0              call        rax
  000000001000215B: 48 83 C4 30        add         rsp,30h
  000000001000215F: 89 45 F8           mov         dword ptr [rbp-8],eax
  0000000010002162: C9                 leave
  0000000010002163: C3                 ret
  0000000010002164: 55                 push        rbp
  0000000010002165: 48 8B EC           mov         rbp,rsp
  0000000010002168: 48 83 EC 60        sub         rsp,60h
  000000001000216C: 48 89 4D 10        mov         qword ptr [rbp+10h],rcx
  0000000010002170: 48 89 55 18        mov         qword ptr [rbp+18h],rdx
  0000000010002174: 4C 89 45 20        mov         qword ptr [rbp+20h],r8
  0000000010002178: 48 8B 45 10        mov         rax,qword ptr [rbp+10h]
  000000001000217C: 48 B9 00 00 00 00  mov         rcx,8000000000000000h
                    00 00 00 80
  0000000010002186: 48 3B C1           cmp         rax,rcx
  0000000010002189: 0F 84 38 03 00 00  je          00000000100024C7
  000000001000218F: 48 8B 45 10        mov         rax,qword ptr [rbp+10h]
  0000000010002193: 48 85 C0           test        rax,rax
  0000000010002196: 0F 8D 2B 00 00 00  jge         00000000100021C7
  000000001000219C: B8 01 00 00 00     mov         eax,1
  00000000100021A1: 88 45 FF           mov         byte ptr [rbp-1],al
  00000000100021A4: 48 8B 45 10        mov         rax,qword ptr [rbp+10h]
  00000000100021A8: 48 F7 D8           neg         rax
  00000000100021AB: 0F 80 05 00 00 00  jo          00000000100021B6
  00000000100021B1: E9 08 00 00 00     jmp         00000000100021BE
  00000000100021B6: B0 06              mov         al,6
  00000000100021B8: B9 66 04 00 00     mov         ecx,466h
  00000000100021BD: CC                 int         3
  00000000100021BE: 48 89 45 10        mov         qword ptr [rbp+10h],rax
  00000000100021C2: E9 05 00 00 00     jmp         00000000100021CC
  00000000100021C7: 31 C0              xor         eax,eax
  00000000100021C9: 88 45 FF           mov         byte ptr [rbp-1],al
  00000000100021CC: 31 C0              xor         eax,eax
  00000000100021CE: 48 89 45 B0        mov         qword ptr [rbp-50h],rax
  00000000100021D2: 48 8B 45 B0        mov         rax,qword ptr [rbp-50h]
  00000000100021D6: 48 83 F8 20        cmp         rax,20h
  00000000100021DA: 0F 83 05 00 00 00  jae         00000000100021E5
  00000000100021E0: E9 08 00 00 00     jmp         00000000100021ED
  00000000100021E5: B0 01              mov         al,1
  00000000100021E7: B9 A2 04 00 00     mov         ecx,4A2h
  00000000100021EC: CC                 int         3
  00000000100021ED: 48 C1 E0 01        shl         rax,1
  00000000100021F1: 48 03 C5           add         rax,rbp
  00000000100021F4: 48 8B 4D 10        mov         rcx,qword ptr [rbp+10h]
  00000000100021F8: BA 0A 00 00 00     mov         edx,0Ah
  00000000100021FD: 4C 8B C0           mov         r8,rax
  0000000010002200: 4C 8B CA           mov         r9,rdx
  0000000010002203: 48 8B C1           mov         rax,rcx
  0000000010002206: 48 99              cqo
  0000000010002208: 48 85 C0           test        rax,rax
  000000001000220B: 0F 88 08 00 00 00  js          0000000010002219
  0000000010002211: 49 F7 F9           idiv        rax,r9
  0000000010002214: E9 0F 00 00 00     jmp         0000000010002228
  0000000010002219: 49 F7 F9           idiv        rax,r9
  000000001000221C: 48 85 D2           test        rdx,rdx
  000000001000221F: 0F 84 03 00 00 00  je          0000000010002228
  0000000010002225: 49 03 D1           add         rdx,r9
  0000000010002228: 48 8B CA           mov         rcx,rdx
  000000001000222B: 49 8B C0           mov         rax,r8
  000000001000222E: 48 83 C1 30        add         rcx,30h
  0000000010002232: 0F 80 05 00 00 00  jo          000000001000223D
  0000000010002238: E9 08 00 00 00     jmp         0000000010002245
  000000001000223D: B0 06              mov         al,6
  000000001000223F: B9 BE 04 00 00     mov         ecx,4BEh
  0000000010002244: CC                 int         3
  0000000010002245: 66 89 48 BE        mov         word ptr [rax-42h],cx
  0000000010002249: 48 83 45 B0 01     add         qword ptr [rbp-50h],1
  000000001000224E: 48 8B 45 10        mov         rax,qword ptr [rbp+10h]
  0000000010002252: B9 0A 00 00 00     mov         ecx,0Ah
  0000000010002257: 48 99              cqo
  0000000010002259: 48 85 C0           test        rax,rax
  000000001000225C: 0F 88 08 00 00 00  js          000000001000226A
  0000000010002262: 48 F7 F9           idiv        rax,rcx
  0000000010002265: E9 10 00 00 00     jmp         000000001000227A
  000000001000226A: 48 F7 F9           idiv        rax,rcx
  000000001000226D: 48 85 D2           test        rdx,rdx
  0000000010002270: 0F 84 04 00 00 00  je          000000001000227A
  0000000010002276: 48 83 E8 01        sub         rax,1
  000000001000227A: 48 89 45 10        mov         qword ptr [rbp+10h],rax
  000000001000227E: 48 8B 45 10        mov         rax,qword ptr [rbp+10h]
  0000000010002282: 48 85 C0           test        rax,rax
  0000000010002285: 0F 85 47 FF FF FF  jne         00000000100021D2
  000000001000228B: 0F B6 45 FF        movzx       eax,byte ptr [rbp-1]
  000000001000228F: 85 C0              test        eax,eax
  0000000010002291: 0F 84 45 01 00 00  je          00000000100023DC
  0000000010002297: 31 C0              xor         eax,eax
  0000000010002299: 48 3B 45 20        cmp         rax,qword ptr [rbp+20h]
  000000001000229D: 0F 83 05 00 00 00  jae         00000000100022A8
  00000000100022A3: E9 08 00 00 00     jmp         00000000100022B0
  00000000100022A8: B0 01              mov         al,1
  00000000100022AA: B9 09 05 00 00     mov         ecx,509h
  00000000100022AF: CC                 int         3
  00000000100022B0: 48 C1 E0 01        shl         rax,1
  00000000100022B4: 48 8B 4D 18        mov         rcx,qword ptr [rbp+18h]
  00000000100022B8: 48 03 C1           add         rax,rcx
  00000000100022BB: B9 2D 00 00 00     mov         ecx,2Dh
  00000000100022C0: 66 89 08           mov         word ptr [rax],cx
  00000000100022C3: 31 C0              xor         eax,eax
  00000000100022C5: 48 89 45 A8        mov         qword ptr [rbp-58h],rax
  00000000100022C9: 48 8B 45 A8        mov         rax,qword ptr [rbp-58h]
  00000000100022CD: 48 8B 4D B0        mov         rcx,qword ptr [rbp-50h]
  00000000100022D1: 48 3B C1           cmp         rax,rcx
  00000000100022D4: 0F 8D BB 00 00 00  jge         0000000010002395
  00000000100022DA: 48 8B 45 A8        mov         rax,qword ptr [rbp-58h]
  00000000100022DE: 48 83 C0 01        add         rax,1
  00000000100022E2: 0F 80 05 00 00 00  jo          00000000100022ED
  00000000100022E8: E9 08 00 00 00     jmp         00000000100022F5
  00000000100022ED: B0 06              mov         al,6
  00000000100022EF: B9 37 05 00 00     mov         ecx,537h
  00000000100022F4: CC                 int         3
  00000000100022F5: 48 3B 45 20        cmp         rax,qword ptr [rbp+20h]
  00000000100022F9: 0F 83 05 00 00 00  jae         0000000010002304
  00000000100022FF: E9 08 00 00 00     jmp         000000001000230C
  0000000010002304: B0 01              mov         al,1
  0000000010002306: B9 37 05 00 00     mov         ecx,537h
  000000001000230B: CC                 int         3
  000000001000230C: 48 C1 E0 01        shl         rax,1
  0000000010002310: 48 8B 4D 18        mov         rcx,qword ptr [rbp+18h]
  0000000010002314: 48 03 C1           add         rax,rcx
  0000000010002317: 48 8B 4D B0        mov         rcx,qword ptr [rbp-50h]
  000000001000231B: 48 83 E9 01        sub         rcx,1
  000000001000231F: 0F 80 05 00 00 00  jo          000000001000232A
  0000000010002325: E9 08 00 00 00     jmp         0000000010002332
  000000001000232A: B0 06              mov         al,6
  000000001000232C: B9 44 05 00 00     mov         ecx,544h
  0000000010002331: CC                 int         3
  0000000010002332: 48 8B 55 A8        mov         rdx,qword ptr [rbp-58h]
  0000000010002336: 48 2B CA           sub         rcx,rdx
  0000000010002339: 0F 80 05 00 00 00  jo          0000000010002344
  000000001000233F: E9 08 00 00 00     jmp         000000001000234C
  0000000010002344: B0 06              mov         al,6
  0000000010002346: B9 47 05 00 00     mov         ecx,547h
  000000001000234B: CC                 int         3
  000000001000234C: 48 83 F9 20        cmp         rcx,20h
  0000000010002350: 0F 83 05 00 00 00  jae         000000001000235B
  0000000010002356: E9 08 00 00 00     jmp         0000000010002363
  000000001000235B: B0 01              mov         al,1
  000000001000235D: B9 47 05 00 00     mov         ecx,547h
  0000000010002362: CC                 int         3
  0000000010002363: 48 C1 E1 01        shl         rcx,1
  0000000010002367: 48 03 CD           add         rcx,rbp
  000000001000236A: 0F B7 49 BE        movzx       ecx,word ptr [rcx-42h]
  000000001000236E: 66 89 08           mov         word ptr [rax],cx
  0000000010002371: 48 8B 45 A8        mov         rax,qword ptr [rbp-58h]
  0000000010002375: 48 83 C0 01        add         rax,1
  0000000010002379: 0F 80 05 00 00 00  jo          0000000010002384
  000000001000237F: E9 08 00 00 00     jmp         000000001000238C
  0000000010002384: B0 06              mov         al,6
  0000000010002386: B9 57 05 00 00     mov         ecx,557h
  000000001000238B: CC                 int         3
  000000001000238C: 48 89 45 A8        mov         qword ptr [rbp-58h],rax
  0000000010002390: E9 34 FF FF FF     jmp         00000000100022C9
  0000000010002395: 48 8B 45 B0        mov         rax,qword ptr [rbp-50h]
  0000000010002399: 48 83 C0 01        add         rax,1
  000000001000239D: 0F 80 05 00 00 00  jo          00000000100023A8
  00000000100023A3: E9 08 00 00 00     jmp         00000000100023B0
  00000000100023A8: B0 06              mov         al,6
  00000000100023AA: B9 67 05 00 00     mov         ecx,567h
  00000000100023AF: CC                 int         3
  00000000100023B0: 48 3B 45 20        cmp         rax,qword ptr [rbp+20h]
  00000000100023B4: 0F 83 05 00 00 00  jae         00000000100023BF
  00000000100023BA: E9 08 00 00 00     jmp         00000000100023C7
  00000000100023BF: B0 01              mov         al,1
  00000000100023C1: B9 67 05 00 00     mov         ecx,567h
  00000000100023C6: CC                 int         3
  00000000100023C7: 48 C1 E0 01        shl         rax,1
  00000000100023CB: 48 8B 4D 18        mov         rcx,qword ptr [rbp+18h]
  00000000100023CF: 48 03 C1           add         rax,rcx
  00000000100023D2: 31 C9              xor         ecx,ecx
  00000000100023D4: 66 89 08           mov         word ptr [rax],cx
  00000000100023D7: E9 E6 00 00 00     jmp         00000000100024C2
  00000000100023DC: 31 C0              xor         eax,eax
  00000000100023DE: 48 89 45 A8        mov         qword ptr [rbp-58h],rax
  00000000100023E2: 48 8B 45 A8        mov         rax,qword ptr [rbp-58h]
  00000000100023E6: 48 8B 4D B0        mov         rcx,qword ptr [rbp-50h]
  00000000100023EA: 48 3B C1           cmp         rax,rcx
  00000000100023ED: 0F 8D A4 00 00 00  jge         0000000010002497
  00000000100023F3: 48 8B 45 A8        mov         rax,qword ptr [rbp-58h]
  00000000100023F7: 48 3B 45 20        cmp         rax,qword ptr [rbp+20h]
  00000000100023FB: 0F 83 05 00 00 00  jae         0000000010002406
  0000000010002401: E9 08 00 00 00     jmp         000000001000240E
  0000000010002406: B0 01              mov         al,1
  0000000010002408: B9 97 05 00 00     mov         ecx,597h
  000000001000240D: CC                 int         3
  000000001000240E: 48 C1 E0 01        shl         rax,1
  0000000010002412: 48 8B 4D 18        mov         rcx,qword ptr [rbp+18h]
  0000000010002416: 48 03 C1           add         rax,rcx
  0000000010002419: 48 8B 4D B0        mov         rcx,qword ptr [rbp-50h]
  000000001000241D: 48 83 E9 01        sub         rcx,1
  0000000010002421: 0F 80 05 00 00 00  jo          000000001000242C
  0000000010002427: E9 08 00 00 00     jmp         0000000010002434
  000000001000242C: B0 06              mov         al,6
  000000001000242E: B9 A4 05 00 00     mov         ecx,5A4h
  0000000010002433: CC                 int         3
  0000000010002434: 48 8B 55 A8        mov         rdx,qword ptr [rbp-58h]
  0000000010002438: 48 2B CA           sub         rcx,rdx
  000000001000243B: 0F 80 05 00 00 00  jo          0000000010002446
  0000000010002441: E9 08 00 00 00     jmp         000000001000244E
  0000000010002446: B0 06              mov         al,6
  0000000010002448: B9 A7 05 00 00     mov         ecx,5A7h
  000000001000244D: CC                 int         3
  000000001000244E: 48 83 F9 20        cmp         rcx,20h
  0000000010002452: 0F 83 05 00 00 00  jae         000000001000245D
  0000000010002458: E9 08 00 00 00     jmp         0000000010002465
  000000001000245D: B0 01              mov         al,1
  000000001000245F: B9 A7 05 00 00     mov         ecx,5A7h
  0000000010002464: CC                 int         3
  0000000010002465: 48 C1 E1 01        shl         rcx,1
  0000000010002469: 48 03 CD           add         rcx,rbp
  000000001000246C: 0F B7 49 BE        movzx       ecx,word ptr [rcx-42h]
  0000000010002470: 66 89 08           mov         word ptr [rax],cx
  0000000010002473: 48 8B 45 A8        mov         rax,qword ptr [rbp-58h]
  0000000010002477: 48 83 C0 01        add         rax,1
  000000001000247B: 0F 80 05 00 00 00  jo          0000000010002486
  0000000010002481: E9 08 00 00 00     jmp         000000001000248E
  0000000010002486: B0 06              mov         al,6
  0000000010002488: B9 B7 05 00 00     mov         ecx,5B7h
  000000001000248D: CC                 int         3
  000000001000248E: 48 89 45 A8        mov         qword ptr [rbp-58h],rax
  0000000010002492: E9 4B FF FF FF     jmp         00000000100023E2
  0000000010002497: 48 8B 45 B0        mov         rax,qword ptr [rbp-50h]
  000000001000249B: 48 3B 45 20        cmp         rax,qword ptr [rbp+20h]
  000000001000249F: 0F 83 05 00 00 00  jae         00000000100024AA
  00000000100024A5: E9 08 00 00 00     jmp         00000000100024B2
  00000000100024AA: B0 01              mov         al,1
  00000000100024AC: B9 C4 05 00 00     mov         ecx,5C4h
  00000000100024B1: CC                 int         3
  00000000100024B2: 48 C1 E0 01        shl         rax,1
  00000000100024B6: 48 8B 4D 18        mov         rcx,qword ptr [rbp+18h]
  00000000100024BA: 48 03 C1           add         rax,rcx
  00000000100024BD: 31 C9              xor         ecx,ecx
  00000000100024BF: 66 89 08           mov         word ptr [rax],cx
  00000000100024C2: E9 4B 00 00 00     jmp         0000000010002512
  00000000100024C7: 31 C0              xor         eax,eax
  00000000100024C9: 48 3B 45 20        cmp         rax,qword ptr [rbp+20h]
  00000000100024CD: 0F 83 05 00 00 00  jae         00000000100024D8
  00000000100024D3: E9 08 00 00 00     jmp         00000000100024E0
  00000000100024D8: B0 01              mov         al,1
  00000000100024DA: B9 DF 05 00 00     mov         ecx,5DFh
  00000000100024DF: CC                 int         3
  00000000100024E0: 48 C1 E0 01        shl         rax,1
  00000000100024E4: 48 8B 4D 18        mov         rcx,qword ptr [rbp+18h]
  00000000100024E8: 48 03 C1           add         rax,rcx
  00000000100024EB: 31 C9              xor         ecx,ecx
  00000000100024ED: 66 89 08           mov         word ptr [rax],cx
  00000000100024F0: 48 83 EC 20        sub         rsp,20h
  00000000100024F4: 48 8D 0D 2B FA FF  lea         rcx,[0000000010001F26h]
                    FF
  00000000100024FB: BA 15 00 00 00     mov         edx,15h
  0000000010002500: 4C 8B 45 18        mov         r8,qword ptr [rbp+18h]
  0000000010002504: 4C 8B 4D 20        mov         r9,qword ptr [rbp+20h]
  0000000010002508: FF 15 42 FA FF FF  call        qword ptr [0000000010001F50h]
  000000001000250E: 48 83 C4 20        add         rsp,20h
  0000000010002512: C9                 leave
  0000000010002513: C3                 ret
  0000000010002514: 55                 push        rbp
  0000000010002515: 48 8B EC           mov         rbp,rsp
  0000000010002518: 48 83 EC 40        sub         rsp,40h
  000000001000251C: 48 89 4D 10        mov         qword ptr [rbp+10h],rcx
  0000000010002520: 48 83 EC 20        sub         rsp,20h
  0000000010002524: 48 8B 4D 10        mov         rcx,qword ptr [rbp+10h]
  0000000010002528: 48 8D 55 C0        lea         rdx,[rbp-40h]
  000000001000252C: 41 B8 20 00 00 00  mov         r8d,20h
  0000000010002532: E8 2D FC FF FF     call        0000000010002164
  0000000010002537: 48 83 C4 20        add         rsp,20h
  000000001000253B: 48 83 EC 20        sub         rsp,20h
  000000001000253F: 48 8D 4D C0        lea         rcx,[rbp-40h]
  0000000010002543: BA 20 00 00 00     mov         edx,20h
  0000000010002548: E8 B5 FB FF FF     call        0000000010002102
  000000001000254D: 48 83 C4 20        add         rsp,20h
  0000000010002551: C9                 leave
  0000000010002552: C3                 ret
  0000000010002553: 55                 push        rbp
  0000000010002554: 48 8B EC           mov         rbp,rsp
  0000000010002557: 48 83 EC 40        sub         rsp,40h
  000000001000255B: 48 89 4D 10        mov         qword ptr [rbp+10h],rcx
  000000001000255F: 48 89 55 18        mov         qword ptr [rbp+18h],rdx
  0000000010002563: 4C 89 45 20        mov         qword ptr [rbp+20h],r8
  0000000010002567: 31 C0              xor         eax,eax
  0000000010002569: 48 89 45 D0        mov         qword ptr [rbp-30h],rax
  000000001000256D: 48 8B 45 10        mov         rax,qword ptr [rbp+10h]
  0000000010002571: 48 83 E0 0F        and         rax,0Fh
  0000000010002575: 48 89 45 C0        mov         qword ptr [rbp-40h],rax
  0000000010002579: 48 8B 45 C0        mov         rax,qword ptr [rbp-40h]
  000000001000257D: 48 83 F8 0A        cmp         rax,0Ah
  0000000010002581: 0F 8D 46 00 00 00  jge         00000000100025CD
  0000000010002587: 48 8B 45 D0        mov         rax,qword ptr [rbp-30h]
  000000001000258B: 48 83 F8 11        cmp         rax,11h
  000000001000258F: 0F 83 05 00 00 00  jae         000000001000259A
  0000000010002595: E9 08 00 00 00     jmp         00000000100025A2
  000000001000259A: B0 01              mov         al,1
  000000001000259C: B9 5E 07 00 00     mov         ecx,75Eh
  00000000100025A1: CC                 int         3
  00000000100025A2: 48 C1 E0 01        shl         rax,1
  00000000100025A6: 48 03 C5           add         rax,rbp
  00000000100025A9: 48 8B 4D C0        mov         rcx,qword ptr [rbp-40h]
  00000000100025AD: 48 83 C1 30        add         rcx,30h
  00000000100025B1: 0F 80 05 00 00 00  jo          00000000100025BC
  00000000100025B7: E9 08 00 00 00     jmp         00000000100025C4
  00000000100025BC: B0 06              mov         al,6
  00000000100025BE: B9 73 07 00 00     mov         ecx,773h
  00000000100025C3: CC                 int         3
  00000000100025C4: 66 89 48 DE        mov         word ptr [rax-22h],cx
  00000000100025C8: E9 41 00 00 00     jmp         000000001000260E
  00000000100025CD: 48 8B 45 D0        mov         rax,qword ptr [rbp-30h]
  00000000100025D1: 48 83 F8 11        cmp         rax,11h
  00000000100025D5: 0F 83 05 00 00 00  jae         00000000100025E0
  00000000100025DB: E9 08 00 00 00     jmp         00000000100025E8
  00000000100025E0: B0 01              mov         al,1
  00000000100025E2: B9 80 07 00 00     mov         ecx,780h
  00000000100025E7: CC                 int         3
  00000000100025E8: 48 C1 E0 01        shl         rax,1
  00000000100025EC: 48 03 C5           add         rax,rbp
  00000000100025EF: 48 8B 4D C0        mov         rcx,qword ptr [rbp-40h]
  00000000100025F3: 48 83 C1 37        add         rcx,37h
  00000000100025F7: 0F 80 05 00 00 00  jo          0000000010002602
  00000000100025FD: E9 08 00 00 00     jmp         000000001000260A
  0000000010002602: B0 06              mov         al,6
  0000000010002604: B9 9A 07 00 00     mov         ecx,79Ah
  0000000010002609: CC                 int         3
  000000001000260A: 66 89 48 DE        mov         word ptr [rax-22h],cx
  000000001000260E: 48 83 45 D0 01     add         qword ptr [rbp-30h],1
  0000000010002613: 48 8B 45 10        mov         rax,qword ptr [rbp+10h]
  0000000010002617: 48 C1 F8 04        sar         rax,4
  000000001000261B: 48 89 45 10        mov         qword ptr [rbp+10h],rax
  000000001000261F: 48 8B 45 10        mov         rax,qword ptr [rbp+10h]
  0000000010002623: 48 85 C0           test        rax,rax
  0000000010002626: 0F 84 0E 00 00 00  je          000000001000263A
  000000001000262C: 48 8B 45 D0        mov         rax,qword ptr [rbp-30h]
  0000000010002630: 48 83 F8 10        cmp         rax,10h
  0000000010002634: 0F 85 33 FF FF FF  jne         000000001000256D
  000000001000263A: 31 C0              xor         eax,eax
  000000001000263C: 48 89 45 C8        mov         qword ptr [rbp-38h],rax
  0000000010002640: 48 8B 45 C8        mov         rax,qword ptr [rbp-38h]
  0000000010002644: 48 8B 4D D0        mov         rcx,qword ptr [rbp-30h]
  0000000010002648: 48 3B C1           cmp         rax,rcx
  000000001000264B: 0F 8D 8A 00 00 00  jge         00000000100026DB
  0000000010002651: 48 8B 45 C8        mov         rax,qword ptr [rbp-38h]
  0000000010002655: 48 3B 45 20        cmp         rax,qword ptr [rbp+20h]
  0000000010002659: 0F 83 05 00 00 00  jae         0000000010002664
  000000001000265F: E9 08 00 00 00     jmp         000000001000266C
  0000000010002664: B0 01              mov         al,1
  0000000010002666: B9 F9 07 00 00     mov         ecx,7F9h
  000000001000266B: CC                 int         3
  000000001000266C: 48 C1 E0 01        shl         rax,1
  0000000010002670: 48 8B 4D 18        mov         rcx,qword ptr [rbp+18h]
  0000000010002674: 48 03 C1           add         rax,rcx
  0000000010002677: 48 8B 4D D0        mov         rcx,qword ptr [rbp-30h]
  000000001000267B: 48 83 E9 01        sub         rcx,1
  000000001000267F: 0F 80 05 00 00 00  jo          000000001000268A
  0000000010002685: E9 08 00 00 00     jmp         0000000010002692
  000000001000268A: B0 06              mov         al,6
  000000001000268C: B9 06 08 00 00     mov         ecx,806h
  0000000010002691: CC                 int         3
  0000000010002692: 48 8B 55 C8        mov         rdx,qword ptr [rbp-38h]
  0000000010002696: 48 2B CA           sub         rcx,rdx
  0000000010002699: 0F 80 05 00 00 00  jo          00000000100026A4
  000000001000269F: E9 08 00 00 00     jmp         00000000100026AC
  00000000100026A4: B0 06              mov         al,6
  00000000100026A6: B9 09 08 00 00     mov         ecx,809h
  00000000100026AB: CC                 int         3
  00000000100026AC: 48 83 F9 11        cmp         rcx,11h
  00000000100026B0: 0F 83 05 00 00 00  jae         00000000100026BB
  00000000100026B6: E9 08 00 00 00     jmp         00000000100026C3
  00000000100026BB: B0 01              mov         al,1
  00000000100026BD: B9 09 08 00 00     mov         ecx,809h
  00000000100026C2: CC                 int         3
  00000000100026C3: 48 C1 E1 01        shl         rcx,1
  00000000100026C7: 48 03 CD           add         rcx,rbp
  00000000100026CA: 0F B7 49 DE        movzx       ecx,word ptr [rcx-22h]
  00000000100026CE: 66 89 08           mov         word ptr [rax],cx
  00000000100026D1: 48 83 45 C8 01     add         qword ptr [rbp-38h],1
  00000000100026D6: E9 65 FF FF FF     jmp         0000000010002640
  00000000100026DB: 48 8B 45 D0        mov         rax,qword ptr [rbp-30h]
  00000000100026DF: 48 3B 45 20        cmp         rax,qword ptr [rbp+20h]
  00000000100026E3: 0F 83 05 00 00 00  jae         00000000100026EE
  00000000100026E9: E9 08 00 00 00     jmp         00000000100026F6
  00000000100026EE: B0 01              mov         al,1
  00000000100026F0: B9 1E 08 00 00     mov         ecx,81Eh
  00000000100026F5: CC                 int         3
  00000000100026F6: 48 C1 E0 01        shl         rax,1
  00000000100026FA: 48 8B 4D 18        mov         rcx,qword ptr [rbp+18h]
  00000000100026FE: 48 03 C1           add         rax,rcx
  0000000010002701: 31 C9              xor         ecx,ecx
  0000000010002703: 66 89 08           mov         word ptr [rax],cx
  0000000010002706: C9                 leave
  0000000010002707: C3                 ret
  0000000010002708: 55                 push        rbp
  0000000010002709: 48 8B EC           mov         rbp,rsp
  000000001000270C: 48 83 EC 30        sub         rsp,30h
  0000000010002710: 48 89 4D 10        mov         qword ptr [rbp+10h],rcx
  0000000010002714: 48 83 EC 20        sub         rsp,20h
  0000000010002718: 48 8B 4D 10        mov         rcx,qword ptr [rbp+10h]
  000000001000271C: 48 8D 55 DE        lea         rdx,[rbp-22h]
  0000000010002720: 41 B8 11 00 00 00  mov         r8d,11h
  0000000010002726: E8 28 FE FF FF     call        0000000010002553
  000000001000272B: 48 83 C4 20        add         rsp,20h
  000000001000272F: 48 83 EC 20        sub         rsp,20h
  0000000010002733: 48 8D 4D DE        lea         rcx,[rbp-22h]
  0000000010002737: BA 11 00 00 00     mov         edx,11h
  000000001000273C: E8 C1 F9 FF FF     call        0000000010002102
  0000000010002741: 48 83 C4 20        add         rsp,20h
  0000000010002745: C9                 leave
  0000000010002746: C3                 ret
  0000000010002747: 55                 push        rbp
  0000000010002748: 48 8B EC           mov         rbp,rsp
  000000001000274B: 48 81 EC 80 00 00  sub         rsp,80h
                    00
  0000000010002752: 66 48 0F 7E 45 10  movd        qword ptr [rbp+10h],xmm0
  0000000010002758: 48 89 55 18        mov         qword ptr [rbp+18h],rdx
  000000001000275C: 4C 89 45 20        mov         qword ptr [rbp+20h],r8
  0000000010002760: 31 C0              xor         eax,eax
  0000000010002762: 48 3B 45 20        cmp         rax,qword ptr [rbp+20h]
  0000000010002766: 0F 83 05 00 00 00  jae         0000000010002771
  000000001000276C: E9 08 00 00 00     jmp         0000000010002779
  0000000010002771: B0 01              mov         al,1
  0000000010002773: B9 9A 09 00 00     mov         ecx,99Ah
  0000000010002778: CC                 int         3
  0000000010002779: 48 C1 E0 01        shl         rax,1
  000000001000277D: 48 8B 4D 18        mov         rcx,qword ptr [rbp+18h]
  0000000010002781: 48 03 C1           add         rax,rcx
  0000000010002784: 31 C9              xor         ecx,ecx
  0000000010002786: 66 89 08           mov         word ptr [rax],cx
  0000000010002789: F3 0F 10 45 10     movss       xmm0,dword ptr [rbp+10h]
  000000001000278E: 48 C1 F8 17        sar         rax,17h
  0000000010002792: 48 81 E0 FF 00 00  and         rax,0FFh
                    00
  0000000010002799: 66 0F 7E C0        movd        eax,xmm0
  000000001000279D: B9 7F 00 00 00     mov         ecx,7Fh
  00000000100027A2: 48 2B C1           sub         rax,rcx
  00000000100027A5: 0F 80 05 00 00 00  jo          00000000100027B0
  00000000100027AB: E9 08 00 00 00     jmp         00000000100027B8
  00000000100027B0: B0 06              mov         al,6
  00000000100027B2: B9 DB 09 00 00     mov         ecx,9DBh
  00000000100027B7: CC                 int         3
  00000000100027B8: 48 89 45 E8        mov         qword ptr [rbp-18h],rax
  00000000100027BC: 48 8B 45 E8        mov         rax,qword ptr [rbp-18h]
  00000000100027C0: 48 83 F8 82        cmp         rax,0FFFFFFFFFFFFFF82h
  00000000100027C4: 0F 8C 82 05 00 00  jl          0000000010002D4C
  00000000100027CA: 48 8B 45 E8        mov         rax,qword ptr [rbp-18h]
  00000000100027CE: 48 83 F8 7F        cmp         rax,7Fh
  00000000100027D2: 0F 8F 74 05 00 00  jg          0000000010002D4C
  00000000100027D8: F3 0F 10 4D 10     movss       xmm1,dword ptr [rbp+10h]
  00000000100027DD: B8 00 00 C0 FF     mov         eax,0FFC00000h
  00000000100027E2: 66 0F 6E D0        movd        xmm2,eax
  00000000100027E6: 0F 2F CA           comiss      xmm1,xmm2
  00000000100027E9: 0F 92 C0           setb        al
  00000000100027EC: 0F B6 C0           movzx       eax,al
  00000000100027EF: 88 45 CF           mov         byte ptr [rbp-31h],al
  00000000100027F2: 0F B6 45 CF        movzx       eax,byte ptr [rbp-31h]
  00000000100027F6: 85 C0              test        eax,eax
  00000000100027F8: 0F 84 49 00 00 00  je          0000000010002847
  00000000100027FE: F3 0F 10 4D 10     movss       xmm1,dword ptr [rbp+10h]
  0000000010002803: 0F 57 D2           xorps       xmm2,xmm2
  0000000010002806: F3 0F 5C D1        subss       xmm2,xmm1
  000000001000280A: F3 0F 10 CA        movss       xmm1,xmm2
  000000001000280E: F3 0F 11 4D 10     movss       dword ptr [rbp+10h],xmm1
  0000000010002813: 48 83 EC 08        sub         rsp,8
  0000000010002817: F3 0F 11 04 24     movss       dword ptr [rsp],xmm0
  000000001000281C: 48 83 EC 28        sub         rsp,28h
  0000000010002820: 48 8D 0D F3 F6 FF  lea         rcx,[0000000010001F1Ah]
                    FF
  0000000010002827: BA 02 00 00 00     mov         edx,2
  000000001000282C: 4C 8B 45 18        mov         r8,qword ptr [rbp+18h]
  0000000010002830: 4C 8B 4D 20        mov         r9,qword ptr [rbp+20h]
  0000000010002834: FF 15 16 F7 FF FF  call        qword ptr [0000000010001F50h]
  000000001000283A: 48 83 C4 28        add         rsp,28h
  000000001000283E: F3 0F 10 04 24     movss       xmm0,dword ptr [rsp]
  0000000010002843: 48 83 C4 08        add         rsp,8
  0000000010002847: 31 C0              xor         eax,eax
  0000000010002849: 48 89 45 E0        mov         qword ptr [rbp-20h],rax
  000000001000284D: 31 C0              xor         eax,eax
  000000001000284F: 66 89 45 CC        mov         word ptr [rbp-34h],ax
  0000000010002853: 48 8B 45 E8        mov         rax,qword ptr [rbp-18h]
  0000000010002857: 48 85 C0           test        rax,rax
  000000001000285A: 0F 8E 3D 00 00 00  jle         000000001000289D
  0000000010002860: F3 0F 10 4D 10     movss       xmm1,dword ptr [rbp+10h]
  0000000010002865: B8 00 00 C0 FF     mov         eax,0FFC00000h
  000000001000286A: 66 0F 6E D0        movd        xmm2,eax
  000000001000286E: 0F 2F CA           comiss      xmm1,xmm2
  0000000010002871: 0F 86 21 00 00 00  jbe         0000000010002898
  0000000010002877: F3 0F 10 4D 10     movss       xmm1,dword ptr [rbp+10h]
  000000001000287C: B8 00 00 C0 FF     mov         eax,0FFC00000h
  0000000010002881: 66 0F 6E D0        movd        xmm2,eax
  0000000010002885: F3 0F 5E CA        divss       xmm1,xmm2
  0000000010002889: F3 0F 11 4D 10     movss       dword ptr [rbp+10h],xmm1
  000000001000288E: 48 83 45 E0 01     add         qword ptr [rbp-20h],1
  0000000010002893: E9 C8 FF FF FF     jmp         0000000010002860
  0000000010002898: E9 45 00 00 00     jmp         00000000100028E2
  000000001000289D: 48 8B 45 E8        mov         rax,qword ptr [rbp-18h]
  00000000100028A1: 48 85 C0           test        rax,rax
  00000000100028A4: 0F 8D 38 00 00 00  jge         00000000100028E2
  00000000100028AA: F3 0F 10 4D 10     movss       xmm1,dword ptr [rbp+10h]
  00000000100028AF: B8 00 00 80 FF     mov         eax,0FF800000h
  00000000100028B4: 66 0F 6E D0        movd        xmm2,eax
  00000000100028B8: 0F 2F CA           comiss      xmm1,xmm2
  00000000100028BB: 0F 83 21 00 00 00  jae         00000000100028E2
  00000000100028C1: F3 0F 10 4D 10     movss       xmm1,dword ptr [rbp+10h]
  00000000100028C6: B8 00 00 C0 FF     mov         eax,0FFC00000h
  00000000100028CB: 66 0F 6E D0        movd        xmm2,eax
  00000000100028CF: F3 0F 59 CA        mulss       xmm1,xmm2
  00000000100028D3: F3 0F 11 4D 10     movss       dword ptr [rbp+10h],xmm1
  00000000100028D8: 48 83 45 E0 FF     add         qword ptr [rbp-20h],0FFFFFFFFFFFFFFFFh
  00000000100028DD: E9 C8 FF FF FF     jmp         00000000100028AA
  00000000100028E2: 48 83 EC 08        sub         rsp,8
  00000000100028E6: 0F AE 1C 24        stmxcsr     dword ptr [rsp]
  00000000100028EA: 0F BA 2C 24 0D     bts         dword ptr [rsp],0Dh
  00000000100028EF: 0F AE 14 24        ldmxcsr     dword ptr [rsp]
  00000000100028F3: F3 0F 10 4D 10     movss       xmm1,dword ptr [rbp+10h]
  00000000100028F8: F3 48 0F 2D C1     cvtss2si    rax,xmm1
  00000000100028FD: 0F BA 34 24 0D     btr         dword ptr [rsp],0Dh
  0000000010002902: 0F AE 14 24        ldmxcsr     dword ptr [rsp]
  0000000010002906: 48 83 C4 08        add         rsp,8
  000000001000290A: 48 89 45 F0        mov         qword ptr [rbp-10h],rax
  000000001000290E: F3 0F 10 4D 10     movss       xmm1,dword ptr [rbp+10h]
  0000000010002913: 48 8B 45 F0        mov         rax,qword ptr [rbp-10h]
  0000000010002917: F3 48 0F 2A D0     cvtsi2ss    xmm2,rax
  000000001000291C: F3 0F 5C CA        subss       xmm1,xmm2
  0000000010002920: B8 00 00 C0 FF     mov         eax,0FFC00000h
  0000000010002925: 66 0F 6E D0        movd        xmm2,eax
  0000000010002929: F3 0F 59 CA        mulss       xmm1,xmm2
  000000001000292D: F3 0F 11 4D 10     movss       dword ptr [rbp+10h],xmm1
  0000000010002932: 48 8B 45 F0        mov         rax,qword ptr [rbp-10h]
  0000000010002936: 48 83 C0 30        add         rax,30h
  000000001000293A: 0F 80 05 00 00 00  jo          0000000010002945
  0000000010002940: E9 08 00 00 00     jmp         000000001000294D
  0000000010002945: B0 06              mov         al,6
  0000000010002947: B9 47 0B 00 00     mov         ecx,0B47h
  000000001000294C: CC                 int         3
  000000001000294D: 66 89 45 CA        mov         word ptr [rbp-36h],ax
  0000000010002951: 48 83 EC 08        sub         rsp,8
  0000000010002955: F3 0F 11 04 24     movss       dword ptr [rsp],xmm0
  000000001000295A: 48 83 EC 28        sub         rsp,28h
  000000001000295E: 48 8D 4D CA        lea         rcx,[rbp-36h]
  0000000010002962: BA 02 00 00 00     mov         edx,2
  0000000010002967: 4C 8B 45 18        mov         r8,qword ptr [rbp+18h]
  000000001000296B: 4C 8B 4D 20        mov         r9,qword ptr [rbp+20h]
  000000001000296F: FF 15 DB F5 FF FF  call        qword ptr [0000000010001F50h]
  0000000010002975: 48 83 C4 28        add         rsp,28h
  0000000010002979: F3 0F 10 04 24     movss       xmm0,dword ptr [rsp]
  000000001000297E: 48 83 C4 08        add         rsp,8
  0000000010002982: 48 83 EC 08        sub         rsp,8
  0000000010002986: F3 0F 11 04 24     movss       dword ptr [rsp],xmm0
  000000001000298B: 48 83 EC 28        sub         rsp,28h
  000000001000298F: 48 8D 0D 7C F5 FF  lea         rcx,[0000000010001F12h]
                    FF
  0000000010002996: BA 02 00 00 00     mov         edx,2
  000000001000299B: 4C 8B 45 18        mov         r8,qword ptr [rbp+18h]
  000000001000299F: 4C 8B 4D 20        mov         r9,qword ptr [rbp+20h]
  00000000100029A3: FF 15 A7 F5 FF FF  call        qword ptr [0000000010001F50h]
  00000000100029A9: 48 83 C4 28        add         rsp,28h
  00000000100029AD: F3 0F 10 04 24     movss       xmm0,dword ptr [rsp]
  00000000100029B2: 48 83 C4 08        add         rsp,8
  00000000100029B6: 31 C0              xor         eax,eax
  00000000100029B8: 48 89 45 D8        mov         qword ptr [rbp-28h],rax
  00000000100029BC: 31 C0              xor         eax,eax
  00000000100029BE: 48 89 45 F8        mov         qword ptr [rbp-8],rax
  00000000100029C2: 31 C0              xor         eax,eax
  00000000100029C4: 48 89 45 D0        mov         qword ptr [rbp-30h],rax
  00000000100029C8: 48 8B 45 F8        mov         rax,qword ptr [rbp-8]
  00000000100029CC: 48 83 F8 06        cmp         rax,6
  00000000100029D0: 0F 8D D1 00 00 00  jge         0000000010002AA7
  00000000100029D6: F3 0F 10 4D 10     movss       xmm1,dword ptr [rbp+10h]
  00000000100029DB: B8 00 00 C0 FF     mov         eax,0FFC00000h
  00000000100029E0: 66 0F 6E D0        movd        xmm2,eax
  00000000100029E4: 0F 2F CA           comiss      xmm1,xmm2
  00000000100029E7: 0F 84 BA 00 00 00  je          0000000010002AA7
  00000000100029ED: 48 83 45 F8 01     add         qword ptr [rbp-8],1
  00000000100029F2: 48 83 EC 08        sub         rsp,8
  00000000100029F6: 0F AE 1C 24        stmxcsr     dword ptr [rsp]
  00000000100029FA: 0F BA 2C 24 0D     bts         dword ptr [rsp],0Dh
  00000000100029FF: 0F AE 14 24        ldmxcsr     dword ptr [rsp]
  0000000010002A03: F3 0F 10 4D 10     movss       xmm1,dword ptr [rbp+10h]
  0000000010002A08: F3 48 0F 2D C1     cvtss2si    rax,xmm1
  0000000010002A0D: 0F BA 34 24 0D     btr         dword ptr [rsp],0Dh
  0000000010002A12: 0F AE 14 24        ldmxcsr     dword ptr [rsp]
  0000000010002A16: 48 83 C4 08        add         rsp,8
  0000000010002A1A: 48 89 45 F0        mov         qword ptr [rbp-10h],rax
  0000000010002A1E: F3 0F 10 4D 10     movss       xmm1,dword ptr [rbp+10h]
  0000000010002A23: 48 8B 45 F0        mov         rax,qword ptr [rbp-10h]
  0000000010002A27: F3 48 0F 2A D0     cvtsi2ss    xmm2,rax
  0000000010002A2C: F3 0F 5C CA        subss       xmm1,xmm2
  0000000010002A30: B8 00 00 C0 FF     mov         eax,0FFC00000h
  0000000010002A35: 66 0F 6E D0        movd        xmm2,eax
  0000000010002A39: F3 0F 59 CA        mulss       xmm1,xmm2
  0000000010002A3D: F3 0F 11 4D 10     movss       dword ptr [rbp+10h],xmm1
  0000000010002A42: 48 8B 45 F0        mov         rax,qword ptr [rbp-10h]
  0000000010002A46: 48 85 C0           test        rax,rax
  0000000010002A49: 0F 85 0D 00 00 00  jne         0000000010002A5C
  0000000010002A4F: 48 8B 45 D8        mov         rax,qword ptr [rbp-28h]
  0000000010002A53: 48 85 C0           test        rax,rax
  0000000010002A56: 0F 84 41 00 00 00  je          0000000010002A9D
  0000000010002A5C: 48 8B 45 D8        mov         rax,qword ptr [rbp-28h]
  0000000010002A60: 48 69 C0 0A 00 00  imul        rax,rax,0Ah
                    00
  0000000010002A67: 0F 80 05 00 00 00  jo          0000000010002A72
  0000000010002A6D: E9 08 00 00 00     jmp         0000000010002A7A
  0000000010002A72: B0 06              mov         al,6
  0000000010002A74: B9 30 0C 00 00     mov         ecx,0C30h
  0000000010002A79: CC                 int         3
  0000000010002A7A: 48 8B 4D F0        mov         rcx,qword ptr [rbp-10h]
  0000000010002A7E: 48 03 C1           add         rax,rcx
  0000000010002A81: 0F 80 05 00 00 00  jo          0000000010002A8C
  0000000010002A87: E9 08 00 00 00     jmp         0000000010002A94
  0000000010002A8C: B0 06              mov         al,6
  0000000010002A8E: B9 3B 0C 00 00     mov         ecx,0C3Bh
  0000000010002A93: CC                 int         3
  0000000010002A94: 48 89 45 D8        mov         qword ptr [rbp-28h],rax
  0000000010002A98: E9 05 00 00 00     jmp         0000000010002AA2
  0000000010002A9D: 48 83 45 D0 01     add         qword ptr [rbp-30h],1
  0000000010002AA2: E9 21 FF FF FF     jmp         00000000100029C8
  0000000010002AA7: F3 0F 10 4D 10     movss       xmm1,dword ptr [rbp+10h]
  0000000010002AAC: B8 00 00 C0 FF     mov         eax,0FFC00000h
  0000000010002AB1: 66 0F 6E D0        movd        xmm2,eax
  0000000010002AB5: 0F 2F CA           comiss      xmm1,xmm2
  0000000010002AB8: 0F 84 CD 00 00 00  je          0000000010002B8B
  0000000010002ABE: 48 83 EC 08        sub         rsp,8
  0000000010002AC2: 0F AE 1C 24        stmxcsr     dword ptr [rsp]
  0000000010002AC6: 0F BA 2C 24 0D     bts         dword ptr [rsp],0Dh
  0000000010002ACB: 0F AE 14 24        ldmxcsr     dword ptr [rsp]
  0000000010002ACF: F3 0F 10 4D 10     movss       xmm1,dword ptr [rbp+10h]
  0000000010002AD4: F3 48 0F 2D C1     cvtss2si    rax,xmm1
  0000000010002AD9: 0F BA 34 24 0D     btr         dword ptr [rsp],0Dh
  0000000010002ADE: 0F AE 14 24        ldmxcsr     dword ptr [rsp]
  0000000010002AE2: 48 83 C4 08        add         rsp,8
  0000000010002AE6: 48 89 45 F0        mov         qword ptr [rbp-10h],rax
  0000000010002AEA: F3 0F 10 4D 10     movss       xmm1,dword ptr [rbp+10h]
  0000000010002AEF: 48 8B 45 F0        mov         rax,qword ptr [rbp-10h]
  0000000010002AF3: F3 48 0F 2A D0     cvtsi2ss    xmm2,rax
  0000000010002AF8: F3 0F 5C CA        subss       xmm1,xmm2
  0000000010002AFC: F3 0F 11 4D 10     movss       dword ptr [rbp+10h],xmm1
  0000000010002B01: F3 0F 10 4D 10     movss       xmm1,dword ptr [rbp+10h]
  0000000010002B06: B8 00 00 80 7F     mov         eax,7F800000h
  0000000010002B0B: 66 0F 6E D0        movd        xmm2,eax
  0000000010002B0F: 0F 2F CA           comiss      xmm1,xmm2
  0000000010002B12: 0F 87 25 00 00 00  ja          0000000010002B3D
  0000000010002B18: F3 0F 10 4D 10     movss       xmm1,dword ptr [rbp+10h]
  0000000010002B1D: B8 00 00 80 7F     mov         eax,7F800000h
  0000000010002B22: 66 0F 6E D0        movd        xmm2,eax
  0000000010002B26: 0F 2F CA           comiss      xmm1,xmm2
  0000000010002B29: 0F 85 13 00 00 00  jne         0000000010002B42
  0000000010002B2F: 48 8B 45 F0        mov         rax,qword ptr [rbp-10h]
  0000000010002B33: 48 83 E0 01        and         rax,1
  0000000010002B37: 0F 84 05 00 00 00  je          0000000010002B42
  0000000010002B3D: 48 83 45 F0 01     add         qword ptr [rbp-10h],1
  0000000010002B42: 48 8B 45 F0        mov         rax,qword ptr [rbp-10h]
  0000000010002B46: 48 85 C0           test        rax,rax
  0000000010002B49: 0F 84 3C 00 00 00  je          0000000010002B8B
  0000000010002B4F: 48 8B 45 D8        mov         rax,qword ptr [rbp-28h]
  0000000010002B53: 48 69 C0 0A 00 00  imul        rax,rax,0Ah
                    00
  0000000010002B5A: 0F 80 05 00 00 00  jo          0000000010002B65
  0000000010002B60: E9 08 00 00 00     jmp         0000000010002B6D
  0000000010002B65: B0 06              mov         al,6
  0000000010002B67: B9 EB 0C 00 00     mov         ecx,0CEBh
  0000000010002B6C: CC                 int         3
  0000000010002B6D: 48 8B 4D F0        mov         rcx,qword ptr [rbp-10h]
  0000000010002B71: 48 03 C1           add         rax,rcx
  0000000010002B74: 0F 80 05 00 00 00  jo          0000000010002B7F
  0000000010002B7A: E9 08 00 00 00     jmp         0000000010002B87
  0000000010002B7F: B0 06              mov         al,6
  0000000010002B81: B9 F1 0C 00 00     mov         ecx,0CF1h
  0000000010002B86: CC                 int         3
  0000000010002B87: 48 89 45 D8        mov         qword ptr [rbp-28h],rax
  0000000010002B8B: 48 8B 45 D8        mov         rax,qword ptr [rbp-28h]
  0000000010002B8F: B9 0A 00 00 00     mov         ecx,0Ah
  0000000010002B94: 48 99              cqo
  0000000010002B96: 48 85 C0           test        rax,rax
  0000000010002B99: 0F 88 08 00 00 00  js          0000000010002BA7
  0000000010002B9F: 48 F7 F9           idiv        rax,rcx
  0000000010002BA2: E9 0F 00 00 00     jmp         0000000010002BB6
  0000000010002BA7: 48 F7 F9           idiv        rax,rcx
  0000000010002BAA: 48 85 D2           test        rdx,rdx
  0000000010002BAD: 0F 84 03 00 00 00  je          0000000010002BB6
  0000000010002BB3: 48 03 D1           add         rdx,rcx
  0000000010002BB6: 48 8B C2           mov         rax,rdx
  0000000010002BB9: 48 85 C0           test        rax,rax
  0000000010002BBC: 0F 85 35 00 00 00  jne         0000000010002BF7
  0000000010002BC2: 48 8B 45 D8        mov         rax,qword ptr [rbp-28h]
  0000000010002BC6: B9 0A 00 00 00     mov         ecx,0Ah
  0000000010002BCB: 48 99              cqo
  0000000010002BCD: 48 85 C0           test        rax,rax
  0000000010002BD0: 0F 88 08 00 00 00  js          0000000010002BDE
  0000000010002BD6: 48 F7 F9           idiv        rax,rcx
  0000000010002BD9: E9 10 00 00 00     jmp         0000000010002BEE
  0000000010002BDE: 48 F7 F9           idiv        rax,rcx
  0000000010002BE1: 48 85 D2           test        rdx,rdx
  0000000010002BE4: 0F 84 04 00 00 00  je          0000000010002BEE
  0000000010002BEA: 48 83 E8 01        sub         rax,1
  0000000010002BEE: 48 89 45 D8        mov         qword ptr [rbp-28h],rax
  0000000010002BF2: E9 94 FF FF FF     jmp         0000000010002B8B
  0000000010002BF7: 48 8B 45 D0        mov         rax,qword ptr [rbp-30h]
  0000000010002BFB: 48 85 C0           test        rax,rax
  0000000010002BFE: 0F 8E 3E 00 00 00  jle         0000000010002C42
  0000000010002C04: 48 83 EC 08        sub         rsp,8
  0000000010002C08: F3 0F 11 04 24     movss       dword ptr [rsp],xmm0
  0000000010002C0D: 48 83 EC 28        sub         rsp,28h
  0000000010002C11: 48 8D 0D F6 F2 FF  lea         rcx,[0000000010001F0Eh]
                    FF
  0000000010002C18: BA 02 00 00 00     mov         edx,2
  0000000010002C1D: 4C 8B 45 18        mov         r8,qword ptr [rbp+18h]
  0000000010002C21: 4C 8B 4D 20        mov         r9,qword ptr [rbp+20h]
  0000000010002C25: FF 15 25 F3 FF FF  call        qword ptr [0000000010001F50h]
  0000000010002C2B: 48 83 C4 28        add         rsp,28h
  0000000010002C2F: F3 0F 10 04 24     movss       xmm0,dword ptr [rsp]
  0000000010002C34: 48 83 C4 08        add         rsp,8
  0000000010002C38: 48 83 45 D0 FF     add         qword ptr [rbp-30h],0FFFFFFFFFFFFFFFFh
  0000000010002C3D: E9 B5 FF FF FF     jmp         0000000010002BF7
  0000000010002C42: 48 8B 45 D8        mov         rax,qword ptr [rbp-28h]
  0000000010002C46: 48 85 C0           test        rax,rax
  0000000010002C49: 0F 84 5E 00 00 00  je          0000000010002CAD
  0000000010002C4F: 48 83 EC 08        sub         rsp,8
  0000000010002C53: F3 0F 11 04 24     movss       dword ptr [rsp],xmm0
  0000000010002C58: 48 83 EC 28        sub         rsp,28h
  0000000010002C5C: 48 8B 4D D8        mov         rcx,qword ptr [rbp-28h]
  0000000010002C60: 48 8D 55 8A        lea         rdx,[rbp-76h]
  0000000010002C64: 41 B8 20 00 00 00  mov         r8d,20h
  0000000010002C6A: E8 F5 F4 FF FF     call        0000000010002164
  0000000010002C6F: 48 83 C4 28        add         rsp,28h
  0000000010002C73: F3 0F 10 04 24     movss       xmm0,dword ptr [rsp]
  0000000010002C78: 48 83 C4 08        add         rsp,8
  0000000010002C7C: 48 83 EC 08        sub         rsp,8
  0000000010002C80: F3 0F 11 04 24     movss       dword ptr [rsp],xmm0
  0000000010002C85: 48 83 EC 28        sub         rsp,28h
  0000000010002C89: 48 8D 4D 8A        lea         rcx,[rbp-76h]
  0000000010002C8D: BA 20 00 00 00     mov         edx,20h
  0000000010002C92: 4C 8B 45 18        mov         r8,qword ptr [rbp+18h]
  0000000010002C96: 4C 8B 4D 20        mov         r9,qword ptr [rbp+20h]
  0000000010002C9A: FF 15 B0 F2 FF FF  call        qword ptr [0000000010001F50h]
  0000000010002CA0: 48 83 C4 28        add         rsp,28h
  0000000010002CA4: F3 0F 10 04 24     movss       xmm0,dword ptr [rsp]
  0000000010002CA9: 48 83 C4 08        add         rsp,8
  0000000010002CAD: 48 8B 45 E0        mov         rax,qword ptr [rbp-20h]
  0000000010002CB1: 48 85 C0           test        rax,rax
  0000000010002CB4: 0F 84 92 00 00 00  je          0000000010002D4C
  0000000010002CBA: 48 83 EC 08        sub         rsp,8
  0000000010002CBE: F3 0F 11 04 24     movss       dword ptr [rsp],xmm0
  0000000010002CC3: 48 83 EC 28        sub         rsp,28h
  0000000010002CC7: 48 8D 0D 3C F2 FF  lea         rcx,[0000000010001F0Ah]
                    FF
  0000000010002CCE: BA 02 00 00 00     mov         edx,2
  0000000010002CD3: 4C 8B 45 18        mov         r8,qword ptr [rbp+18h]
  0000000010002CD7: 4C 8B 4D 20        mov         r9,qword ptr [rbp+20h]
  0000000010002CDB: FF 15 6F F2 FF FF  call        qword ptr [0000000010001F50h]
  0000000010002CE1: 48 83 C4 28        add         rsp,28h
  0000000010002CE5: F3 0F 10 04 24     movss       xmm0,dword ptr [rsp]
  0000000010002CEA: 48 83 C4 08        add         rsp,8
  0000000010002CEE: 48 83 EC 08        sub         rsp,8
  0000000010002CF2: F3 0F 11 04 24     movss       dword ptr [rsp],xmm0
  0000000010002CF7: 48 83 EC 28        sub         rsp,28h
  0000000010002CFB: 48 8B 4D E0        mov         rcx,qword ptr [rbp-20h]
  0000000010002CFF: 48 8D 55 8A        lea         rdx,[rbp-76h]
  0000000010002D03: 41 B8 20 00 00 00  mov         r8d,20h
  0000000010002D09: E8 56 F4 FF FF     call        0000000010002164
  0000000010002D0E: 48 83 C4 28        add         rsp,28h
  0000000010002D12: F3 0F 10 04 24     movss       xmm0,dword ptr [rsp]
  0000000010002D17: 48 83 C4 08        add         rsp,8
  0000000010002D1B: 48 83 EC 08        sub         rsp,8
  0000000010002D1F: F3 0F 11 04 24     movss       dword ptr [rsp],xmm0
  0000000010002D24: 48 83 EC 28        sub         rsp,28h
  0000000010002D28: 48 8D 4D 8A        lea         rcx,[rbp-76h]
  0000000010002D2C: BA 20 00 00 00     mov         edx,20h
  0000000010002D31: 4C 8B 45 18        mov         r8,qword ptr [rbp+18h]
  0000000010002D35: 4C 8B 4D 20        mov         r9,qword ptr [rbp+20h]
  0000000010002D39: FF 15 11 F2 FF FF  call        qword ptr [0000000010001F50h]
  0000000010002D3F: 48 83 C4 28        add         rsp,28h
  0000000010002D43: F3 0F 10 04 24     movss       xmm0,dword ptr [rsp]
  0000000010002D48: 48 83 C4 08        add         rsp,8
  0000000010002D4C: C9                 leave
  0000000010002D4D: C3                 ret
  0000000010002D4E: 55                 push        rbp
  0000000010002D4F: 48 8B EC           mov         rbp,rsp
  0000000010002D52: 48 83 EC 40        sub         rsp,40h
  0000000010002D56: 66 48 0F 7E 45 10  movd        qword ptr [rbp+10h],xmm0
  0000000010002D5C: 48 83 EC 20        sub         rsp,20h
  0000000010002D60: F3 0F 10 45 10     movss       xmm0,dword ptr [rbp+10h]
  0000000010002D65: 48 8D 55 C0        lea         rdx,[rbp-40h]
  0000000010002D69: 41 B8 20 00 00 00  mov         r8d,20h
  0000000010002D6F: E8 D3 F9 FF FF     call        0000000010002747
  0000000010002D74: 48 83 C4 20        add         rsp,20h
  0000000010002D78: 48 83 EC 20        sub         rsp,20h
  0000000010002D7C: 48 8D 4D C0        lea         rcx,[rbp-40h]
  0000000010002D80: BA 20 00 00 00     mov         edx,20h
  0000000010002D85: E8 78 F3 FF FF     call        0000000010002102
  0000000010002D8A: 48 83 C4 20        add         rsp,20h
  0000000010002D8E: C9                 leave
  0000000010002D8F: C3                 ret
  0000000010002D90: 55                 push        rbp
  0000000010002D91: 48 8B EC           mov         rbp,rsp
  0000000010002D94: 48 83 EC 10        sub         rsp,10h
  0000000010002D98: 48 89 4D 10        mov         qword ptr [rbp+10h],rcx
  0000000010002D9C: 48 8B 0D 5D F1 FF  mov         rcx,qword ptr [0000000010001F00h]
                    FF
  0000000010002DA3: 48 8B 09           mov         rcx,qword ptr [rcx]
  0000000010002DA6: 51                 push        rcx
  0000000010002DA7: 48 83 EC 28        sub         rsp,28h
  0000000010002DAB: 48 8B 0D 46 F2 FF  mov         rcx,qword ptr [0000000010001FF8h]
                    FF
  0000000010002DB2: 48 8B 55 10        mov         rdx,qword ptr [rbp+10h]
  0000000010002DB6: 41 B8 01 00 00 00  mov         r8d,1
  0000000010002DBC: 4C 8D 4D FC        lea         r9,[rbp-4]
  0000000010002DC0: 31 C0              xor         eax,eax
  0000000010002DC2: 48 89 44 24 20     mov         qword ptr [rsp+20h],rax
  0000000010002DC7: 48 8B 44 24 28     mov         rax,qword ptr [rsp+28h]
  0000000010002DCC: FF D0              call        rax
  0000000010002DCE: 48 83 C4 30        add         rsp,30h
  0000000010002DD2: 89 45 F8           mov         dword ptr [rbp-8],eax
  0000000010002DD5: 8B 45 F8           mov         eax,dword ptr [rbp-8]
  0000000010002DD8: 48 85 C0           test        rax,rax
  0000000010002DDB: 0F 84 05 00 00 00  je          0000000010002DE6
  0000000010002DE1: E9 08 00 00 00     jmp         0000000010002DEE
  0000000010002DE6: B0 03              mov         al,3
  0000000010002DE8: B9 91 0F 00 00     mov         ecx,0F91h
  0000000010002DED: CC                 int         3
  0000000010002DEE: 8B 45 FC           mov         eax,dword ptr [rbp-4]
  0000000010002DF1: 48 83 F8 01        cmp         rax,1
  0000000010002DF5: 0F 85 05 00 00 00  jne         0000000010002E00
  0000000010002DFB: E9 08 00 00 00     jmp         0000000010002E08
  0000000010002E00: B0 03              mov         al,3
  0000000010002E02: B9 A5 0F 00 00     mov         ecx,0FA5h
  0000000010002E07: CC                 int         3
  0000000010002E08: C9                 leave
  0000000010002E09: C3                 ret
  0000000010002E0A: 55                 push        rbp
  0000000010002E0B: 48 8B EC           mov         rbp,rsp
  0000000010002E0E: 48 83 EC 10        sub         rsp,10h
  0000000010002E12: 48 8B 0D DF F0 FF  mov         rcx,qword ptr [0000000010001EF8h]
                    FF
  0000000010002E19: 48 8B 09           mov         rcx,qword ptr [rcx]
  0000000010002E1C: 51                 push        rcx
  0000000010002E1D: 48 83 EC 28        sub         rsp,28h
  0000000010002E21: 48 8B 44 24 28     mov         rax,qword ptr [rsp+28h]
  0000000010002E26: FF D0              call        rax
  0000000010002E28: 48 83 C4 30        add         rsp,30h
  0000000010002E2C: 89 45 FC           mov         dword ptr [rbp-4],eax
  0000000010002E2F: 48 8B 0D BA F0 FF  mov         rcx,qword ptr [0000000010001EF0h]
                    FF
  0000000010002E36: 48 8B 09           mov         rcx,qword ptr [rcx]
  0000000010002E39: 51                 push        rcx
  0000000010002E3A: 48 83 EC 28        sub         rsp,28h
  0000000010002E3E: 48 B9 F6 FF FF FF  mov         rcx,0FFFFFFFFFFFFFFF6h
                    FF FF FF FF
  0000000010002E48: 48 8B 44 24 28     mov         rax,qword ptr [rsp+28h]
  0000000010002E4D: FF D0              call        rax
  0000000010002E4F: 48 83 C4 30        add         rsp,30h
  0000000010002E53: 48 89 05 9E F1 FF  mov         qword ptr [0000000010001FF8h],rax
                    FF
  0000000010002E5A: 48 8B 0D 8F F0 FF  mov         rcx,qword ptr [0000000010001EF0h]
                    FF
  0000000010002E61: 48 8B 09           mov         rcx,qword ptr [rcx]
  0000000010002E64: 51                 push        rcx
  0000000010002E65: 48 83 EC 28        sub         rsp,28h
  0000000010002E69: 48 B9 F5 FF FF FF  mov         rcx,0FFFFFFFFFFFFFFF5h
                    FF FF FF FF
  0000000010002E73: 48 8B 44 24 28     mov         rax,qword ptr [rsp+28h]
  0000000010002E78: FF D0              call        rax
  0000000010002E7A: 48 83 C4 30        add         rsp,30h
  0000000010002E7E: 48 89 05 6B F1 FF  mov         qword ptr [0000000010001FF0h],rax
                    FF
  0000000010002E85: C9                 leave
  0000000010002E86: C3                 ret
  0000000010002E87: 55                 push        rbp
  0000000010002E88: 48 8B EC           mov         rbp,rsp
  0000000010002E8B: 48 83 EC 20        sub         rsp,20h
  0000000010002E8F: E8 76 FF FF FF     call        0000000010002E0A
  0000000010002E94: 48 83 C4 20        add         rsp,20h
  0000000010002E98: C9                 leave
  0000000010002E99: C3                 ret
  0000000010002E9A: 83 FA 01           cmp         edx,1
  0000000010002E9D: 0F 84 01 00 00 00  je          0000000010002EA4
  0000000010002EA3: C3                 ret
  0000000010002EA4: 56                 push        rsi
  0000000010002EA5: 57                 push        rdi
  0000000010002EA6: 48 83 EC 28        sub         rsp,28h
  0000000010002EAA: FF 15 20 F1 FF FF  call        qword ptr [0000000010001FD0h]
  0000000010002EB0: 48 89 05 F9 F0 FF  mov         qword ptr [0000000010001FB0h],rax
                    FF
  0000000010002EB7: 48 8D 0D 1A F0 FF  lea         rcx,[0000000010001ED8h]
                    FF
  0000000010002EBE: FF 15 FC F0 FF FF  call        qword ptr [0000000010001FC0h]
  0000000010002EC4: 48 8B F0           mov         rsi,rax
  0000000010002EC7: 48 B8 00 00 00 00  mov         rax,0
                    00 00 00 00
  0000000010002ED1: 48 3B 86 F0 03 00  cmp         rax,qword ptr [rsi+00000000000003F0h]
                    00
  0000000010002ED8: 0F 85 05 00 00 00  jne         0000000010002EE3
  0000000010002EDE: E9 08 00 00 00     jmp         0000000010002EEB
  0000000010002EE3: B0 05              mov         al,5
  0000000010002EE5: B9 84 10 00 00     mov         ecx,1084h
  0000000010002EEA: CC                 int         3
  0000000010002EEB: 48 B8 00 00 00 00  mov         rax,0
                    00 00 00 00
  0000000010002EF5: 48 3B 86 F8 03 00  cmp         rax,qword ptr [rsi+00000000000003F8h]
                    00
  0000000010002EFC: 0F 85 05 00 00 00  jne         0000000010002F07
  0000000010002F02: E9 08 00 00 00     jmp         0000000010002F0F
  0000000010002F07: B0 05              mov         al,5
  0000000010002F09: B9 84 10 00 00     mov         ecx,1084h
  0000000010002F0E: CC                 int         3
  0000000010002F0F: 48 8B CE           mov         rcx,rsi
  0000000010002F12: BA 03 00 00 00     mov         edx,3
  0000000010002F17: FF 15 AB F0 FF FF  call        qword ptr [0000000010001FC8h]
  0000000010002F1D: 48 89 05 2C F0 FF  mov         qword ptr [0000000010001F50h],rax
                    FF
  0000000010002F24: 48 8B CE           mov         rcx,rsi
  0000000010002F27: BA 01 00 00 00     mov         edx,1
  0000000010002F2C: FF 15 96 F0 FF FF  call        qword ptr [0000000010001FC8h]
  0000000010002F32: 48 89 05 27 F0 FF  mov         qword ptr [0000000010001F60h],rax
                    FF
  0000000010002F39: 48 8D 0D 82 EF FF  lea         rcx,[0000000010001EC2h]
                    FF
  0000000010002F40: FF 15 7A F0 FF FF  call        qword ptr [0000000010001FC0h]
  0000000010002F46: 48 8B F0           mov         rsi,rax
  0000000010002F49: 48 B8 00 00 00 00  mov         rax,0
                    00 00 00 00
  0000000010002F53: 48 3B 86 F0 03 00  cmp         rax,qword ptr [rsi+00000000000003F0h]
                    00
  0000000010002F5A: 0F 85 05 00 00 00  jne         0000000010002F65
  0000000010002F60: E9 08 00 00 00     jmp         0000000010002F6D
  0000000010002F65: B0 05              mov         al,5
  0000000010002F67: B9 84 10 00 00     mov         ecx,1084h
  0000000010002F6C: CC                 int         3
  0000000010002F6D: 48 B8 00 00 00 00  mov         rax,0
                    00 00 00 00
  0000000010002F77: 48 3B 86 F8 03 00  cmp         rax,qword ptr [rsi+00000000000003F8h]
                    00
  0000000010002F7E: 0F 85 05 00 00 00  jne         0000000010002F89
  0000000010002F84: E9 08 00 00 00     jmp         0000000010002F91
  0000000010002F89: B0 05              mov         al,5
  0000000010002F8B: B9 84 10 00 00     mov         ecx,1084h
  0000000010002F90: CC                 int         3
  0000000010002F91: 48 8B CE           mov         rcx,rsi
  0000000010002F94: BA 0D 00 00 00     mov         edx,0Dh
  0000000010002F99: FF 15 29 F0 FF FF  call        qword ptr [0000000010001FC8h]
  0000000010002F9F: 48 89 05 5A EF FF  mov         qword ptr [0000000010001F00h],rax
                    FF
  0000000010002FA6: 48 8B CE           mov         rcx,rsi
  0000000010002FA9: BA 0C 00 00 00     mov         edx,0Ch
  0000000010002FAE: FF 15 14 F0 FF FF  call        qword ptr [0000000010001FC8h]
  0000000010002FB4: 48 89 05 AD EF FF  mov         qword ptr [0000000010001F68h],rax
                    FF
  0000000010002FBB: 48 8B CE           mov         rcx,rsi
  0000000010002FBE: BA 0B 00 00 00     mov         edx,0Bh
  0000000010002FC3: FF 15 FF EF FF FF  call        qword ptr [0000000010001FC8h]
  0000000010002FC9: 48 89 05 20 EF FF  mov         qword ptr [0000000010001EF0h],rax
                    FF
  0000000010002FD0: 48 8B CE           mov         rcx,rsi
  0000000010002FD3: BA 0A 00 00 00     mov         edx,0Ah
  0000000010002FD8: FF 15 EA EF FF FF  call        qword ptr [0000000010001FC8h]
  0000000010002FDE: 48 89 05 13 EF FF  mov         qword ptr [0000000010001EF8h],rax
                    FF
  0000000010002FE5: E8 9D FE FF FF     call        0000000010002E87
  0000000010002FEA: B8 01 00 00 00     mov         eax,1
  0000000010002FEF: 48 83 C4 28        add         rsp,28h
  0000000010002FF3: 5F                 pop         rdi
  0000000010002FF4: 5E                 pop         rsi
  0000000010002FF5: C3                 ret

RAW DATA #2
  0000000010002000: 55 48 8B EC 48 83 EC 10 48 89 4D 10 48 8B 0D 55  UH.?H.?.H.M.H..U
  0000000010002010: FF FF FF 48 8B 09 51 48 83 EC 28 48 8B 0D CE FF  ÿÿÿH..QH.?(H..Îÿ
  0000000010002020: FF FF 48 8D 55 10 41 B8 01 00 00 00 4C 8D 4D FC  ÿÿH.U.A¸....L.Mü
  0000000010002030: 31 C0 48 89 44 24 20 48 8B 44 24 28 FF D0 48 83  1ÀH.D$ H.D$(ÿ?H.
  0000000010002040: C4 30 89 45 F8 8B 45 F8 48 85 C0 0F 84 05 00 00  Ä0.Eø.EøH.À.....
  0000000010002050: 00 E9 08 00 00 00 B0 03 B9 50 01 00 00 CC 8B 45  .é....°.¹P...?.E
  0000000010002060: FC 48 83 F8 01 0F 85 05 00 00 00 E9 08 00 00 00  üH.ø.......é....
  0000000010002070: B0 03 B9 67 01 00 00 CC C9 C3 55 48 8B EC 48 83  °.¹g...?É?UH.?H.
  0000000010002080: EC 10 B8 0D 00 00 00 66 89 45 FC B8 0A 00 00 00  ?.¸....f.Eü¸....
  0000000010002090: 66 89 45 FE 48 8B 0D CD FE FF FF 48 8B 09 51 48  f.E?H..Í?ÿÿH..QH
  00000000100020A0: 83 EC 28 48 8B 0D 46 FF FF FF 48 8D 55 FC 41 B8  .?(H..FÿÿÿH.UüA¸
  00000000100020B0: 02 00 00 00 4C 8D 4D F8 31 C0 48 89 44 24 20 48  ....L.Mø1ÀH.D$ H
  00000000100020C0: 8B 44 24 28 FF D0 48 83 C4 30 89 45 F4 8B 45 F4  .D$(ÿ?H.Ä0.Eô.Eô
  00000000100020D0: 48 85 C0 0F 84 05 00 00 00 E9 08 00 00 00 B0 03  H.À......é....°.
  00000000100020E0: B9 69 02 00 00 CC 8B 45 F8 48 83 F8 02 0F 85 05  ¹i...?.EøH.ø....
  00000000100020F0: 00 00 00 E9 08 00 00 00 B0 03 B9 80 02 00 00 CC  ...é....°.¹....?
  0000000010002100: C9 C3 55 48 8B EC 48 83 EC 10 48 89 4D 10 48 89  É?UH.?H.?.H.M.H.
  0000000010002110: 55 18 48 8B 0D 4F FE FF FF 48 8B 09 51 48 83 EC  U.H..O?ÿÿH..QH.?
  0000000010002120: 28 48 8B 0D C8 FE FF FF 48 8B 55 10 51 52 48 83  (H..È?ÿÿH.U.QRH.
  0000000010002130: EC 20 48 8B 4D 10 48 8B 55 18 FF 15 20 FE FF FF  ? H.M.H.U.ÿ. ?ÿÿ
  0000000010002140: 48 83 C4 20 5A 59 4C 8B C0 4C 8D 4D FC 31 C0 48  H.Ä ZYL.ÀL.Mü1ÀH
  0000000010002150: 89 44 24 20 48 8B 44 24 28 FF D0 48 83 C4 30 89  .D$ H.D$(ÿ?H.Ä0.
  0000000010002160: 45 F8 C9 C3 55 48 8B EC 48 83 EC 60 48 89 4D 10  EøÉ?UH.?H.?`H.M.
  0000000010002170: 48 89 55 18 4C 89 45 20 48 8B 45 10 48 B9 00 00  H.U.L.E H.E.H¹..
  0000000010002180: 00 00 00 00 00 80 48 3B C1 0F 84 38 03 00 00 48  ......H;Á..8...H
  0000000010002190: 8B 45 10 48 85 C0 0F 8D 2B 00 00 00 B8 01 00 00  .E.H.À..+...¸...
  00000000100021A0: 00 88 45 FF 48 8B 45 10 48 F7 D8 0F 80 05 00 00  ..EÿH.E.H÷Ø.....
  00000000100021B0: 00 E9 08 00 00 00 B0 06 B9 66 04 00 00 CC 48 89  .é....°.¹f...?H.
  00000000100021C0: 45 10 E9 05 00 00 00 31 C0 88 45 FF 31 C0 48 89  E.é....1À.Eÿ1ÀH.
  00000000100021D0: 45 B0 48 8B 45 B0 48 83 F8 20 0F 83 05 00 00 00  E°H.E°H.ø ......
  00000000100021E0: E9 08 00 00 00 B0 01 B9 A2 04 00 00 CC 48 C1 E0  é....°.¹¢...?HÁà
  00000000100021F0: 01 48 03 C5 48 8B 4D 10 BA 0A 00 00 00 4C 8B C0  .H.ÅH.M.º....L.À
  0000000010002200: 4C 8B CA 48 8B C1 48 99 48 85 C0 0F 88 08 00 00  L.ÊH.ÁH.H.À.....
  0000000010002210: 00 49 F7 F9 E9 0F 00 00 00 49 F7 F9 48 85 D2 0F  .I÷ùé....I÷ùH.?.
  0000000010002220: 84 03 00 00 00 49 03 D1 48 8B CA 49 8B C0 48 83  .....I.ÑH.ÊI.ÀH.
  0000000010002230: C1 30 0F 80 05 00 00 00 E9 08 00 00 00 B0 06 B9  Á0......é....°.¹
  0000000010002240: BE 04 00 00 CC 66 89 48 BE 48 83 45 B0 01 48 8B  ¾...?f.H¾H.E°.H.
  0000000010002250: 45 10 B9 0A 00 00 00 48 99 48 85 C0 0F 88 08 00  E.¹....H.H.À....
  0000000010002260: 00 00 48 F7 F9 E9 10 00 00 00 48 F7 F9 48 85 D2  ..H÷ùé....H÷ùH.?
  0000000010002270: 0F 84 04 00 00 00 48 83 E8 01 48 89 45 10 48 8B  ......H.è.H.E.H.
  0000000010002280: 45 10 48 85 C0 0F 85 47 FF FF FF 0F B6 45 FF 85  E.H.À..Gÿÿÿ.¶Eÿ.
  0000000010002290: C0 0F 84 45 01 00 00 31 C0 48 3B 45 20 0F 83 05  À..E...1ÀH;E ...
  00000000100022A0: 00 00 00 E9 08 00 00 00 B0 01 B9 09 05 00 00 CC  ...é....°.¹....?
  00000000100022B0: 48 C1 E0 01 48 8B 4D 18 48 03 C1 B9 2D 00 00 00  HÁà.H.M.H.Á¹-...
  00000000100022C0: 66 89 08 31 C0 48 89 45 A8 48 8B 45 A8 48 8B 4D  f..1ÀH.E¨H.E¨H.M
  00000000100022D0: B0 48 3B C1 0F 8D BB 00 00 00 48 8B 45 A8 48 83  °H;Á..»...H.E¨H.
  00000000100022E0: C0 01 0F 80 05 00 00 00 E9 08 00 00 00 B0 06 B9  À.......é....°.¹
  00000000100022F0: 37 05 00 00 CC 48 3B 45 20 0F 83 05 00 00 00 E9  7...?H;E ......é
  0000000010002300: 08 00 00 00 B0 01 B9 37 05 00 00 CC 48 C1 E0 01  ....°.¹7...?HÁà.
  0000000010002310: 48 8B 4D 18 48 03 C1 48 8B 4D B0 48 83 E9 01 0F  H.M.H.ÁH.M°H.é..
  0000000010002320: 80 05 00 00 00 E9 08 00 00 00 B0 06 B9 44 05 00  .....é....°.¹D..
  0000000010002330: 00 CC 48 8B 55 A8 48 2B CA 0F 80 05 00 00 00 E9  .?H.U¨H+Ê......é
  0000000010002340: 08 00 00 00 B0 06 B9 47 05 00 00 CC 48 83 F9 20  ....°.¹G...?H.ù 
  0000000010002350: 0F 83 05 00 00 00 E9 08 00 00 00 B0 01 B9 47 05  ......é....°.¹G.
  0000000010002360: 00 00 CC 48 C1 E1 01 48 03 CD 0F B7 49 BE 66 89  ..?HÁá.H.Í.·I¾f.
  0000000010002370: 08 48 8B 45 A8 48 83 C0 01 0F 80 05 00 00 00 E9  .H.E¨H.À.......é
  0000000010002380: 08 00 00 00 B0 06 B9 57 05 00 00 CC 48 89 45 A8  ....°.¹W...?H.E¨
  0000000010002390: E9 34 FF FF FF 48 8B 45 B0 48 83 C0 01 0F 80 05  é4ÿÿÿH.E°H.À....
  00000000100023A0: 00 00 00 E9 08 00 00 00 B0 06 B9 67 05 00 00 CC  ...é....°.¹g...?
  00000000100023B0: 48 3B 45 20 0F 83 05 00 00 00 E9 08 00 00 00 B0  H;E ......é....°
  00000000100023C0: 01 B9 67 05 00 00 CC 48 C1 E0 01 48 8B 4D 18 48  .¹g...?HÁà.H.M.H
  00000000100023D0: 03 C1 31 C9 66 89 08 E9 E6 00 00 00 31 C0 48 89  .Á1Éf..éæ...1ÀH.
  00000000100023E0: 45 A8 48 8B 45 A8 48 8B 4D B0 48 3B C1 0F 8D A4  E¨H.E¨H.M°H;Á..¤
  00000000100023F0: 00 00 00 48 8B 45 A8 48 3B 45 20 0F 83 05 00 00  ...H.E¨H;E .....
  0000000010002400: 00 E9 08 00 00 00 B0 01 B9 97 05 00 00 CC 48 C1  .é....°.¹....?HÁ
  0000000010002410: E0 01 48 8B 4D 18 48 03 C1 48 8B 4D B0 48 83 E9  à.H.M.H.ÁH.M°H.é
  0000000010002420: 01 0F 80 05 00 00 00 E9 08 00 00 00 B0 06 B9 A4  .......é....°.¹¤
  0000000010002430: 05 00 00 CC 48 8B 55 A8 48 2B CA 0F 80 05 00 00  ...?H.U¨H+Ê.....
  0000000010002440: 00 E9 08 00 00 00 B0 06 B9 A7 05 00 00 CC 48 83  .é....°.¹§...?H.
  0000000010002450: F9 20 0F 83 05 00 00 00 E9 08 00 00 00 B0 01 B9  ù ......é....°.¹
  0000000010002460: A7 05 00 00 CC 48 C1 E1 01 48 03 CD 0F B7 49 BE  §...?HÁá.H.Í.·I¾
  0000000010002470: 66 89 08 48 8B 45 A8 48 83 C0 01 0F 80 05 00 00  f..H.E¨H.À......
  0000000010002480: 00 E9 08 00 00 00 B0 06 B9 B7 05 00 00 CC 48 89  .é....°.¹·...?H.
  0000000010002490: 45 A8 E9 4B FF FF FF 48 8B 45 B0 48 3B 45 20 0F  E¨éKÿÿÿH.E°H;E .
  00000000100024A0: 83 05 00 00 00 E9 08 00 00 00 B0 01 B9 C4 05 00  .....é....°.¹Ä..
  00000000100024B0: 00 CC 48 C1 E0 01 48 8B 4D 18 48 03 C1 31 C9 66  .?HÁà.H.M.H.Á1Éf
  00000000100024C0: 89 08 E9 4B 00 00 00 31 C0 48 3B 45 20 0F 83 05  ..éK...1ÀH;E ...
  00000000100024D0: 00 00 00 E9 08 00 00 00 B0 01 B9 DF 05 00 00 CC  ...é....°.¹ß...?
  00000000100024E0: 48 C1 E0 01 48 8B 4D 18 48 03 C1 31 C9 66 89 08  HÁà.H.M.H.Á1Éf..
  00000000100024F0: 48 83 EC 20 48 8D 0D 2B FA FF FF BA 15 00 00 00  H.? H..+úÿÿº....
  0000000010002500: 4C 8B 45 18 4C 8B 4D 20 FF 15 42 FA FF FF 48 83  L.E.L.M ÿ.BúÿÿH.
  0000000010002510: C4 20 C9 C3 55 48 8B EC 48 83 EC 40 48 89 4D 10  Ä É?UH.?H.?@H.M.
  0000000010002520: 48 83 EC 20 48 8B 4D 10 48 8D 55 C0 41 B8 20 00  H.? H.M.H.UÀA¸ .
  0000000010002530: 00 00 E8 2D FC FF FF 48 83 C4 20 48 83 EC 20 48  ..è-üÿÿH.Ä H.? H
  0000000010002540: 8D 4D C0 BA 20 00 00 00 E8 B5 FB FF FF 48 83 C4  .MÀº ...èµûÿÿH.Ä
  0000000010002550: 20 C9 C3 55 48 8B EC 48 83 EC 40 48 89 4D 10 48   É?UH.?H.?@H.M.H
  0000000010002560: 89 55 18 4C 89 45 20 31 C0 48 89 45 D0 48 8B 45  .U.L.E 1ÀH.E?H.E
  0000000010002570: 10 48 83 E0 0F 48 89 45 C0 48 8B 45 C0 48 83 F8  .H.à.H.EÀH.EÀH.ø
  0000000010002580: 0A 0F 8D 46 00 00 00 48 8B 45 D0 48 83 F8 11 0F  ...F...H.E?H.ø..
  0000000010002590: 83 05 00 00 00 E9 08 00 00 00 B0 01 B9 5E 07 00  .....é....°.¹^..
  00000000100025A0: 00 CC 48 C1 E0 01 48 03 C5 48 8B 4D C0 48 83 C1  .?HÁà.H.ÅH.MÀH.Á
  00000000100025B0: 30 0F 80 05 00 00 00 E9 08 00 00 00 B0 06 B9 73  0......é....°.¹s
  00000000100025C0: 07 00 00 CC 66 89 48 DE E9 41 00 00 00 48 8B 45  ...?f.H?éA...H.E
  00000000100025D0: D0 48 83 F8 11 0F 83 05 00 00 00 E9 08 00 00 00  ?H.ø.......é....
  00000000100025E0: B0 01 B9 80 07 00 00 CC 48 C1 E0 01 48 03 C5 48  °.¹....?HÁà.H.ÅH
  00000000100025F0: 8B 4D C0 48 83 C1 37 0F 80 05 00 00 00 E9 08 00  .MÀH.Á7......é..
  0000000010002600: 00 00 B0 06 B9 9A 07 00 00 CC 66 89 48 DE 48 83  ..°.¹....?f.H?H.
  0000000010002610: 45 D0 01 48 8B 45 10 48 C1 F8 04 48 89 45 10 48  E?.H.E.HÁø.H.E.H
  0000000010002620: 8B 45 10 48 85 C0 0F 84 0E 00 00 00 48 8B 45 D0  .E.H.À......H.E?
  0000000010002630: 48 83 F8 10 0F 85 33 FF FF FF 31 C0 48 89 45 C8  H.ø...3ÿÿÿ1ÀH.EÈ
  0000000010002640: 48 8B 45 C8 48 8B 4D D0 48 3B C1 0F 8D 8A 00 00  H.EÈH.M?H;Á.....
  0000000010002650: 00 48 8B 45 C8 48 3B 45 20 0F 83 05 00 00 00 E9  .H.EÈH;E ......é
  0000000010002660: 08 00 00 00 B0 01 B9 F9 07 00 00 CC 48 C1 E0 01  ....°.¹ù...?HÁà.
  0000000010002670: 48 8B 4D 18 48 03 C1 48 8B 4D D0 48 83 E9 01 0F  H.M.H.ÁH.M?H.é..
  0000000010002680: 80 05 00 00 00 E9 08 00 00 00 B0 06 B9 06 08 00  .....é....°.¹...
  0000000010002690: 00 CC 48 8B 55 C8 48 2B CA 0F 80 05 00 00 00 E9  .?H.UÈH+Ê......é
  00000000100026A0: 08 00 00 00 B0 06 B9 09 08 00 00 CC 48 83 F9 11  ....°.¹....?H.ù.
  00000000100026B0: 0F 83 05 00 00 00 E9 08 00 00 00 B0 01 B9 09 08  ......é....°.¹..
  00000000100026C0: 00 00 CC 48 C1 E1 01 48 03 CD 0F B7 49 DE 66 89  ..?HÁá.H.Í.·I?f.
  00000000100026D0: 08 48 83 45 C8 01 E9 65 FF FF FF 48 8B 45 D0 48  .H.EÈ.éeÿÿÿH.E?H
  00000000100026E0: 3B 45 20 0F 83 05 00 00 00 E9 08 00 00 00 B0 01  ;E ......é....°.
  00000000100026F0: B9 1E 08 00 00 CC 48 C1 E0 01 48 8B 4D 18 48 03  ¹....?HÁà.H.M.H.
  0000000010002700: C1 31 C9 66 89 08 C9 C3 55 48 8B EC 48 83 EC 30  Á1Éf..É?UH.?H.?0
  0000000010002710: 48 89 4D 10 48 83 EC 20 48 8B 4D 10 48 8D 55 DE  H.M.H.? H.M.H.U?
  0000000010002720: 41 B8 11 00 00 00 E8 28 FE FF FF 48 83 C4 20 48  A¸....è(?ÿÿH.Ä H
  0000000010002730: 83 EC 20 48 8D 4D DE BA 11 00 00 00 E8 C1 F9 FF  .? H.M?º....èÁùÿ
  0000000010002740: FF 48 83 C4 20 C9 C3 55 48 8B EC 48 81 EC 80 00  ÿH.Ä É?UH.?H.?..
  0000000010002750: 00 00 66 48 0F 7E 45 10 48 89 55 18 4C 89 45 20  ..fH.~E.H.U.L.E 
  0000000010002760: 31 C0 48 3B 45 20 0F 83 05 00 00 00 E9 08 00 00  1ÀH;E ......é...
  0000000010002770: 00 B0 01 B9 9A 09 00 00 CC 48 C1 E0 01 48 8B 4D  .°.¹....?HÁà.H.M
  0000000010002780: 18 48 03 C1 31 C9 66 89 08 F3 0F 10 45 10 48 C1  .H.Á1Éf..ó..E.HÁ
  0000000010002790: F8 17 48 81 E0 FF 00 00 00 66 0F 7E C0 B9 7F 00  ø.H.àÿ...f.~À¹..
  00000000100027A0: 00 00 48 2B C1 0F 80 05 00 00 00 E9 08 00 00 00  ..H+Á......é....
  00000000100027B0: B0 06 B9 DB 09 00 00 CC 48 89 45 E8 48 8B 45 E8  °.¹Û...?H.EèH.Eè
  00000000100027C0: 48 83 F8 82 0F 8C 82 05 00 00 48 8B 45 E8 48 83  H.ø.......H.EèH.
  00000000100027D0: F8 7F 0F 8F 74 05 00 00 F3 0F 10 4D 10 B8 00 00  ø...t...ó..M.¸..
  00000000100027E0: C0 FF 66 0F 6E D0 0F 2F CA 0F 92 C0 0F B6 C0 88  Àÿf.n?./Ê..À.¶À.
  00000000100027F0: 45 CF 0F B6 45 CF 85 C0 0F 84 49 00 00 00 F3 0F  EÏ.¶EÏ.À..I...ó.
  0000000010002800: 10 4D 10 0F 57 D2 F3 0F 5C D1 F3 0F 10 CA F3 0F  .M..W?ó.\Ñó..Êó.
  0000000010002810: 11 4D 10 48 83 EC 08 F3 0F 11 04 24 48 83 EC 28  .M.H.?.ó...$H.?(
  0000000010002820: 48 8D 0D F3 F6 FF FF BA 02 00 00 00 4C 8B 45 18  H..óöÿÿº....L.E.
  0000000010002830: 4C 8B 4D 20 FF 15 16 F7 FF FF 48 83 C4 28 F3 0F  L.M ÿ..÷ÿÿH.Ä(ó.
  0000000010002840: 10 04 24 48 83 C4 08 31 C0 48 89 45 E0 31 C0 66  ..$H.Ä.1ÀH.Eà1Àf
  0000000010002850: 89 45 CC 48 8B 45 E8 48 85 C0 0F 8E 3D 00 00 00  .E?H.EèH.À..=...
  0000000010002860: F3 0F 10 4D 10 B8 00 00 C0 FF 66 0F 6E D0 0F 2F  ó..M.¸..Àÿf.n?./
  0000000010002870: CA 0F 86 21 00 00 00 F3 0F 10 4D 10 B8 00 00 C0  Ê..!...ó..M.¸..À
  0000000010002880: FF 66 0F 6E D0 F3 0F 5E CA F3 0F 11 4D 10 48 83  ÿf.n?ó.^Êó..M.H.
  0000000010002890: 45 E0 01 E9 C8 FF FF FF E9 45 00 00 00 48 8B 45  Eà.éÈÿÿÿéE...H.E
  00000000100028A0: E8 48 85 C0 0F 8D 38 00 00 00 F3 0F 10 4D 10 B8  èH.À..8...ó..M.¸
  00000000100028B0: 00 00 80 FF 66 0F 6E D0 0F 2F CA 0F 83 21 00 00  ...ÿf.n?./Ê..!..
  00000000100028C0: 00 F3 0F 10 4D 10 B8 00 00 C0 FF 66 0F 6E D0 F3  .ó..M.¸..Àÿf.n?ó
  00000000100028D0: 0F 59 CA F3 0F 11 4D 10 48 83 45 E0 FF E9 C8 FF  .YÊó..M.H.EàÿéÈÿ
  00000000100028E0: FF FF 48 83 EC 08 0F AE 1C 24 0F BA 2C 24 0D 0F  ÿÿH.?..®.$.º,$..
  00000000100028F0: AE 14 24 F3 0F 10 4D 10 F3 48 0F 2D C1 0F BA 34  ®.$ó..M.óH.-Á.º4
  0000000010002900: 24 0D 0F AE 14 24 48 83 C4 08 48 89 45 F0 F3 0F  $..®.$H.Ä.H.E?ó.
  0000000010002910: 10 4D 10 48 8B 45 F0 F3 48 0F 2A D0 F3 0F 5C CA  .M.H.E?óH.*?ó.\Ê
  0000000010002920: B8 00 00 C0 FF 66 0F 6E D0 F3 0F 59 CA F3 0F 11  ¸..Àÿf.n?ó.YÊó..
  0000000010002930: 4D 10 48 8B 45 F0 48 83 C0 30 0F 80 05 00 00 00  M.H.E?H.À0......
  0000000010002940: E9 08 00 00 00 B0 06 B9 47 0B 00 00 CC 66 89 45  é....°.¹G...?f.E
  0000000010002950: CA 48 83 EC 08 F3 0F 11 04 24 48 83 EC 28 48 8D  ÊH.?.ó...$H.?(H.
  0000000010002960: 4D CA BA 02 00 00 00 4C 8B 45 18 4C 8B 4D 20 FF  MÊº....L.E.L.M ÿ
  0000000010002970: 15 DB F5 FF FF 48 83 C4 28 F3 0F 10 04 24 48 83  .Û?ÿÿH.Ä(ó...$H.
  0000000010002980: C4 08 48 83 EC 08 F3 0F 11 04 24 48 83 EC 28 48  Ä.H.?.ó...$H.?(H
  0000000010002990: 8D 0D 7C F5 FF FF BA 02 00 00 00 4C 8B 45 18 4C  ..|?ÿÿº....L.E.L
  00000000100029A0: 8B 4D 20 FF 15 A7 F5 FF FF 48 83 C4 28 F3 0F 10  .M ÿ.§?ÿÿH.Ä(ó..
  00000000100029B0: 04 24 48 83 C4 08 31 C0 48 89 45 D8 31 C0 48 89  .$H.Ä.1ÀH.EØ1ÀH.
  00000000100029C0: 45 F8 31 C0 48 89 45 D0 48 8B 45 F8 48 83 F8 06  Eø1ÀH.E?H.EøH.ø.
  00000000100029D0: 0F 8D D1 00 00 00 F3 0F 10 4D 10 B8 00 00 C0 FF  ..Ñ...ó..M.¸..Àÿ
  00000000100029E0: 66 0F 6E D0 0F 2F CA 0F 84 BA 00 00 00 48 83 45  f.n?./Ê..º...H.E
  00000000100029F0: F8 01 48 83 EC 08 0F AE 1C 24 0F BA 2C 24 0D 0F  ø.H.?..®.$.º,$..
  0000000010002A00: AE 14 24 F3 0F 10 4D 10 F3 48 0F 2D C1 0F BA 34  ®.$ó..M.óH.-Á.º4
  0000000010002A10: 24 0D 0F AE 14 24 48 83 C4 08 48 89 45 F0 F3 0F  $..®.$H.Ä.H.E?ó.
  0000000010002A20: 10 4D 10 48 8B 45 F0 F3 48 0F 2A D0 F3 0F 5C CA  .M.H.E?óH.*?ó.\Ê
  0000000010002A30: B8 00 00 C0 FF 66 0F 6E D0 F3 0F 59 CA F3 0F 11  ¸..Àÿf.n?ó.YÊó..
  0000000010002A40: 4D 10 48 8B 45 F0 48 85 C0 0F 85 0D 00 00 00 48  M.H.E?H.À......H
  0000000010002A50: 8B 45 D8 48 85 C0 0F 84 41 00 00 00 48 8B 45 D8  .EØH.À..A...H.EØ
  0000000010002A60: 48 69 C0 0A 00 00 00 0F 80 05 00 00 00 E9 08 00  HiÀ..........é..
  0000000010002A70: 00 00 B0 06 B9 30 0C 00 00 CC 48 8B 4D F0 48 03  ..°.¹0...?H.M?H.
  0000000010002A80: C1 0F 80 05 00 00 00 E9 08 00 00 00 B0 06 B9 3B  Á......é....°.¹;
  0000000010002A90: 0C 00 00 CC 48 89 45 D8 E9 05 00 00 00 48 83 45  ...?H.EØé....H.E
  0000000010002AA0: D0 01 E9 21 FF FF FF F3 0F 10 4D 10 B8 00 00 C0  ?.é!ÿÿÿó..M.¸..À
  0000000010002AB0: FF 66 0F 6E D0 0F 2F CA 0F 84 CD 00 00 00 48 83  ÿf.n?./Ê..Í...H.
  0000000010002AC0: EC 08 0F AE 1C 24 0F BA 2C 24 0D 0F AE 14 24 F3  ?..®.$.º,$..®.$ó
  0000000010002AD0: 0F 10 4D 10 F3 48 0F 2D C1 0F BA 34 24 0D 0F AE  ..M.óH.-Á.º4$..®
  0000000010002AE0: 14 24 48 83 C4 08 48 89 45 F0 F3 0F 10 4D 10 48  .$H.Ä.H.E?ó..M.H
  0000000010002AF0: 8B 45 F0 F3 48 0F 2A D0 F3 0F 5C CA F3 0F 11 4D  .E?óH.*?ó.\Êó..M
  0000000010002B00: 10 F3 0F 10 4D 10 B8 00 00 80 7F 66 0F 6E D0 0F  .ó..M.¸....f.n?.
  0000000010002B10: 2F CA 0F 87 25 00 00 00 F3 0F 10 4D 10 B8 00 00  /Ê..%...ó..M.¸..
  0000000010002B20: 80 7F 66 0F 6E D0 0F 2F CA 0F 85 13 00 00 00 48  ..f.n?./Ê......H
  0000000010002B30: 8B 45 F0 48 83 E0 01 0F 84 05 00 00 00 48 83 45  .E?H.à.......H.E
  0000000010002B40: F0 01 48 8B 45 F0 48 85 C0 0F 84 3C 00 00 00 48  ?.H.E?H.À..<...H
  0000000010002B50: 8B 45 D8 48 69 C0 0A 00 00 00 0F 80 05 00 00 00  .EØHiÀ..........
  0000000010002B60: E9 08 00 00 00 B0 06 B9 EB 0C 00 00 CC 48 8B 4D  é....°.¹ë...?H.M
  0000000010002B70: F0 48 03 C1 0F 80 05 00 00 00 E9 08 00 00 00 B0  ?H.Á......é....°
  0000000010002B80: 06 B9 F1 0C 00 00 CC 48 89 45 D8 48 8B 45 D8 B9  .¹ñ...?H.EØH.EØ¹
  0000000010002B90: 0A 00 00 00 48 99 48 85 C0 0F 88 08 00 00 00 48  ....H.H.À......H
  0000000010002BA0: F7 F9 E9 0F 00 00 00 48 F7 F9 48 85 D2 0F 84 03  ÷ùé....H÷ùH.?...
  0000000010002BB0: 00 00 00 48 03 D1 48 8B C2 48 85 C0 0F 85 35 00  ...H.ÑH.ÂH.À..5.
  0000000010002BC0: 00 00 48 8B 45 D8 B9 0A 00 00 00 48 99 48 85 C0  ..H.EØ¹....H.H.À
  0000000010002BD0: 0F 88 08 00 00 00 48 F7 F9 E9 10 00 00 00 48 F7  ......H÷ùé....H÷
  0000000010002BE0: F9 48 85 D2 0F 84 04 00 00 00 48 83 E8 01 48 89  ùH.?......H.è.H.
  0000000010002BF0: 45 D8 E9 94 FF FF FF 48 8B 45 D0 48 85 C0 0F 8E  EØé.ÿÿÿH.E?H.À..
  0000000010002C00: 3E 00 00 00 48 83 EC 08 F3 0F 11 04 24 48 83 EC  >...H.?.ó...$H.?
  0000000010002C10: 28 48 8D 0D F6 F2 FF FF BA 02 00 00 00 4C 8B 45  (H..ö?ÿÿº....L.E
  0000000010002C20: 18 4C 8B 4D 20 FF 15 25 F3 FF FF 48 83 C4 28 F3  .L.M ÿ.%óÿÿH.Ä(ó
  0000000010002C30: 0F 10 04 24 48 83 C4 08 48 83 45 D0 FF E9 B5 FF  ...$H.Ä.H.E?ÿéµÿ
  0000000010002C40: FF FF 48 8B 45 D8 48 85 C0 0F 84 5E 00 00 00 48  ÿÿH.EØH.À..^...H
  0000000010002C50: 83 EC 08 F3 0F 11 04 24 48 83 EC 28 48 8B 4D D8  .?.ó...$H.?(H.MØ
  0000000010002C60: 48 8D 55 8A 41 B8 20 00 00 00 E8 F5 F4 FF FF 48  H.U.A¸ ...è?ôÿÿH
  0000000010002C70: 83 C4 28 F3 0F 10 04 24 48 83 C4 08 48 83 EC 08  .Ä(ó...$H.Ä.H.?.
  0000000010002C80: F3 0F 11 04 24 48 83 EC 28 48 8D 4D 8A BA 20 00  ó...$H.?(H.M.º .
  0000000010002C90: 00 00 4C 8B 45 18 4C 8B 4D 20 FF 15 B0 F2 FF FF  ..L.E.L.M ÿ.°?ÿÿ
  0000000010002CA0: 48 83 C4 28 F3 0F 10 04 24 48 83 C4 08 48 8B 45  H.Ä(ó...$H.Ä.H.E
  0000000010002CB0: E0 48 85 C0 0F 84 92 00 00 00 48 83 EC 08 F3 0F  àH.À......H.?.ó.
  0000000010002CC0: 11 04 24 48 83 EC 28 48 8D 0D 3C F2 FF FF BA 02  ..$H.?(H..<?ÿÿº.
  0000000010002CD0: 00 00 00 4C 8B 45 18 4C 8B 4D 20 FF 15 6F F2 FF  ...L.E.L.M ÿ.o?ÿ
  0000000010002CE0: FF 48 83 C4 28 F3 0F 10 04 24 48 83 C4 08 48 83  ÿH.Ä(ó...$H.Ä.H.
  0000000010002CF0: EC 08 F3 0F 11 04 24 48 83 EC 28 48 8B 4D E0 48  ?.ó...$H.?(H.MàH
  0000000010002D00: 8D 55 8A 41 B8 20 00 00 00 E8 56 F4 FF FF 48 83  .U.A¸ ...èVôÿÿH.
  0000000010002D10: C4 28 F3 0F 10 04 24 48 83 C4 08 48 83 EC 08 F3  Ä(ó...$H.Ä.H.?.ó
  0000000010002D20: 0F 11 04 24 48 83 EC 28 48 8D 4D 8A BA 20 00 00  ...$H.?(H.M.º ..
  0000000010002D30: 00 4C 8B 45 18 4C 8B 4D 20 FF 15 11 F2 FF FF 48  .L.E.L.M ÿ..?ÿÿH
  0000000010002D40: 83 C4 28 F3 0F 10 04 24 48 83 C4 08 C9 C3 55 48  .Ä(ó...$H.Ä.É?UH
  0000000010002D50: 8B EC 48 83 EC 40 66 48 0F 7E 45 10 48 83 EC 20  .?H.?@fH.~E.H.? 
  0000000010002D60: F3 0F 10 45 10 48 8D 55 C0 41 B8 20 00 00 00 E8  ó..E.H.UÀA¸ ...è
  0000000010002D70: D3 F9 FF FF 48 83 C4 20 48 83 EC 20 48 8D 4D C0  ÓùÿÿH.Ä H.? H.MÀ
  0000000010002D80: BA 20 00 00 00 E8 78 F3 FF FF 48 83 C4 20 C9 C3  º ...èxóÿÿH.Ä É?
  0000000010002D90: 55 48 8B EC 48 83 EC 10 48 89 4D 10 48 8B 0D 5D  UH.?H.?.H.M.H..]
  0000000010002DA0: F1 FF FF 48 8B 09 51 48 83 EC 28 48 8B 0D 46 F2  ñÿÿH..QH.?(H..F?
  0000000010002DB0: FF FF 48 8B 55 10 41 B8 01 00 00 00 4C 8D 4D FC  ÿÿH.U.A¸....L.Mü
  0000000010002DC0: 31 C0 48 89 44 24 20 48 8B 44 24 28 FF D0 48 83  1ÀH.D$ H.D$(ÿ?H.
  0000000010002DD0: C4 30 89 45 F8 8B 45 F8 48 85 C0 0F 84 05 00 00  Ä0.Eø.EøH.À.....
  0000000010002DE0: 00 E9 08 00 00 00 B0 03 B9 91 0F 00 00 CC 8B 45  .é....°.¹....?.E
  0000000010002DF0: FC 48 83 F8 01 0F 85 05 00 00 00 E9 08 00 00 00  üH.ø.......é....
  0000000010002E00: B0 03 B9 A5 0F 00 00 CC C9 C3 55 48 8B EC 48 83  °.¹¥...?É?UH.?H.
  0000000010002E10: EC 10 48 8B 0D DF F0 FF FF 48 8B 09 51 48 83 EC  ?.H..ß?ÿÿH..QH.?
  0000000010002E20: 28 48 8B 44 24 28 FF D0 48 83 C4 30 89 45 FC 48  (H.D$(ÿ?H.Ä0.EüH
  0000000010002E30: 8B 0D BA F0 FF FF 48 8B 09 51 48 83 EC 28 48 B9  ..º?ÿÿH..QH.?(H¹
  0000000010002E40: F6 FF FF FF FF FF FF FF 48 8B 44 24 28 FF D0 48  öÿÿÿÿÿÿÿH.D$(ÿ?H
  0000000010002E50: 83 C4 30 48 89 05 9E F1 FF FF 48 8B 0D 8F F0 FF  .Ä0H...ñÿÿH...?ÿ
  0000000010002E60: FF 48 8B 09 51 48 83 EC 28 48 B9 F5 FF FF FF FF  ÿH..QH.?(H¹?ÿÿÿÿ
  0000000010002E70: FF FF FF 48 8B 44 24 28 FF D0 48 83 C4 30 48 89  ÿÿÿH.D$(ÿ?H.Ä0H.
  0000000010002E80: 05 6B F1 FF FF C9 C3 55 48 8B EC 48 83 EC 20 E8  .kñÿÿÉ?UH.?H.? è
  0000000010002E90: 76 FF FF FF 48 83 C4 20 C9 C3 83 FA 01 0F 84 01  vÿÿÿH.Ä É?.ú....
  0000000010002EA0: 00 00 00 C3 56 57 48 83 EC 28 FF 15 20 F1 FF FF  ...?VWH.?(ÿ. ñÿÿ
  0000000010002EB0: 48 89 05 F9 F0 FF FF 48 8D 0D 1A F0 FF FF FF 15  H..ù?ÿÿH...?ÿÿÿ.
  0000000010002EC0: FC F0 FF FF 48 8B F0 48 B8 00 00 00 00 00 00 00  ü?ÿÿH.?H¸.......
  0000000010002ED0: 00 48 3B 86 F0 03 00 00 0F 85 05 00 00 00 E9 08  .H;.?.........é.
  0000000010002EE0: 00 00 00 B0 05 B9 84 10 00 00 CC 48 B8 00 00 00  ...°.¹....?H¸...
  0000000010002EF0: 00 00 00 00 00 48 3B 86 F8 03 00 00 0F 85 05 00  .....H;.ø.......
  0000000010002F00: 00 00 E9 08 00 00 00 B0 05 B9 84 10 00 00 CC 48  ..é....°.¹....?H
  0000000010002F10: 8B CE BA 03 00 00 00 FF 15 AB F0 FF FF 48 89 05  .Îº....ÿ.«?ÿÿH..
  0000000010002F20: 2C F0 FF FF 48 8B CE BA 01 00 00 00 FF 15 96 F0  ,?ÿÿH.Îº....ÿ..?
  0000000010002F30: FF FF 48 89 05 27 F0 FF FF 48 8D 0D 82 EF FF FF  ÿÿH..'?ÿÿH...ïÿÿ
  0000000010002F40: FF 15 7A F0 FF FF 48 8B F0 48 B8 00 00 00 00 00  ÿ.z?ÿÿH.?H¸.....
  0000000010002F50: 00 00 00 48 3B 86 F0 03 00 00 0F 85 05 00 00 00  ...H;.?.........
  0000000010002F60: E9 08 00 00 00 B0 05 B9 84 10 00 00 CC 48 B8 00  é....°.¹....?H¸.
  0000000010002F70: 00 00 00 00 00 00 00 48 3B 86 F8 03 00 00 0F 85  .......H;.ø.....
  0000000010002F80: 05 00 00 00 E9 08 00 00 00 B0 05 B9 84 10 00 00  ....é....°.¹....
  0000000010002F90: CC 48 8B CE BA 0D 00 00 00 FF 15 29 F0 FF FF 48  ?H.Îº....ÿ.)?ÿÿH
  0000000010002FA0: 89 05 5A EF FF FF 48 8B CE BA 0C 00 00 00 FF 15  ..ZïÿÿH.Îº....ÿ.
  0000000010002FB0: 14 F0 FF FF 48 89 05 AD EF FF FF 48 8B CE BA 0B  .?ÿÿH..­ïÿÿH.Îº.
  0000000010002FC0: 00 00 00 FF 15 FF EF FF FF 48 89 05 20 EF FF FF  ...ÿ.ÿïÿÿH.. ïÿÿ
  0000000010002FD0: 48 8B CE BA 0A 00 00 00 FF 15 EA EF FF FF 48 89  H.Îº....ÿ.êïÿÿH.
  0000000010002FE0: 05 13 EF FF FF E8 9D FE FF FF B8 01 00 00 00 48  ..ïÿÿè.?ÿÿ¸....H
  0000000010002FF0: 83 C4 28 5F 5E C3                                .Ä(_^?

SECTION HEADER #3
  .idata name
     130 virtual size
    3000 virtual address (0000000010003000 to 000000001000312F)
     200 size of raw data
    1400 file pointer to raw data (00001400 to 000015FF)
       0 file pointer to relocation table
       0 file pointer to line numbers
       0 number of relocations
       0 number of line numbers
C0000040 flags
         Initialized Data
         Read Write

RAW DATA #3
  0000000010003000: 28 30 00 00 00 00 00 00 00 00 00 00 60 30 00 00  (0..........`0..
  0000000010003010: B8 1F 00 00 00 00 00 00 00 00 00 00 00 00 00 00  ¸...............
  0000000010003020: 00 00 00 00 00 00 00 00 70 30 00 00 00 00 00 00  ........p0......
  0000000010003030: 90 30 00 00 00 00 00 00 B0 30 00 00 00 00 00 00  .0......°0......
  0000000010003040: D0 30 00 00 00 00 00 00 F0 30 00 00 00 00 00 00  ?0......?0......
  0000000010003050: 10 31 00 00 00 00 00 00 00 00 00 00 00 00 00 00  .1..............
  0000000010003060: 4B 45 52 4E 45 4C 33 32 2E 44 4C 4C 00 00 00 00  KERNEL32.DLL....
  0000000010003070: 00 00 45 78 69 74 50 72 6F 63 65 73 73 00 00 00  ..ExitProcess...
  0000000010003080: 00 00 00 00 00 00 00 00 00 00 00 00 00 00 00 00  ................
  0000000010003090: 00 00 4C 6F 61 64 4C 69 62 72 61 72 79 57 00 00  ..LoadLibraryW..
  00000000100030A0: 00 00 00 00 00 00 00 00 00 00 00 00 00 00 00 00  ................
  00000000100030B0: 00 00 47 65 74 50 72 6F 63 41 64 64 72 65 73 73  ..GetProcAddress
  00000000100030C0: 00 00 00 00 00 00 00 00 00 00 00 00 00 00 00 00  ................
  00000000100030D0: 00 00 47 65 74 50 72 6F 63 65 73 73 48 65 61 70  ..GetProcessHeap
  00000000100030E0: 00 00 00 00 00 00 00 00 00 00 00 00 00 00 00 00  ................
  00000000100030F0: 00 00 48 65 61 70 41 6C 6C 6F 63 00 00 00 00 00  ..HeapAlloc.....
  0000000010003100: 00 00 00 00 00 00 00 00 00 00 00 00 00 00 00 00  ................
  0000000010003110: 00 00 48 65 61 70 46 72 65 65 00 00 00 00 00 00  ..HeapFree......
  0000000010003120: 00 00 00 00 00 00 00 00 00 00 00 00 00 00 00 00  ................

  Section contains the following imports:

    KERNEL32.DLL
              10001FB8 Import Address Table
              10003028 Import Name Table
                     0 time date stamp
                     0 Index of first forwarder reference

                           0 ExitProcess
                           0 LoadLibraryW
                           0 GetProcAddress
                           0 GetProcessHeap
                           0 HeapAlloc
                           0 HeapFree

SECTION HEADER #4
  .reloc name
       C virtual size
    4000 virtual address (0000000010004000 to 000000001000400B)
     200 size of raw data
    2600 file pointer to raw data (00002600 to 000027FF)
       0 file pointer to relocation table
       0 file pointer to line numbers
       0 number of relocations
       0 number of line numbers
42000040 flags
         Initialized Data
         Discardable
         Read Only

RAW DATA #4
  0000000010004000: 04 00 00 00 0C 00 00 00 00 00 00 00              ............

BASE RELOCATIONS #4
       4 RVA,        C SizeOfBlock
       0  ABS                        
       0  ABS                        

SECTION HEADER #5
  .edata name
      58 virtual size
    5000 virtual address (0000000010005000 to 0000000010005057)
     200 size of raw data
    2800 file pointer to raw data (00002800 to 000029FF)
       0 file pointer to relocation table
       0 file pointer to line numbers
       0 number of relocations
       0 number of line numbers
40000040 flags
         Initialized Data
         Read Only

RAW DATA #5
  0000000010005000: 00 00 00 00 00 00 00 00 00 00 00 00 4C 50 00 00  ............LP..
  0000000010005010: 01 00 00 00 09 00 00 00 00 00 00 00 28 50 00 00  ............(P..
  0000000010005020: 00 00 00 00 00 00 00 00 00 20 00 00 7A 20 00 00  ......... ..z ..
  0000000010005030: 02 21 00 00 64 21 00 00 14 25 00 00 53 25 00 00  .!..d!...%..S%..
  0000000010005040: 08 27 00 00 4E 2D 00 00 90 2D 00 00 43 6F 6E 73  .'..N-...-..Cons
  0000000010005050: 6F 6C 65 2E 64 6C 6C 00                          ole.dll.

  Section contains the following exports for Console.dll

    00000000 characteristics
           0 time date stamp Thu Jan  1 07:00:00 1970
        0.00 version
           1 ordinal base
           9 number of functions
           0 number of names

    ordinal hint RVA      name

          1      00002000 [NONAME]
          2      0000207A [NONAME]
          3      00002102 [NONAME]
          4      00002164 [NONAME]
          5      00002514 [NONAME]
          6      00002553 [NONAME]
          7      00002708 [NONAME]
          8      00002D4E [NONAME]
          9      00002D90 [NONAME]

  Summary

        1000 .data
        1000 .edata
        1000 .idata
        1000 .reloc
        1000 .text
