Microsoft (R) COFF/PE Dumper Version 14.00.23026.0
Copyright (C) Microsoft Corporation.  All rights reserved.


Dump of file Scanner.dll

PE signature found

File Type: DLL

FILE HEADER VALUES
            8664 machine (x64)
               5 number of sections
               0 time date stamp Thu Jan  1 07:00:00 1970
               0 file pointer to symbol table
               0 number of symbols
              F0 size of optional header
            2022 characteristics
                   Executable
                   Application can handle large (>2GB) addresses
                   DLL

OPTIONAL HEADER VALUES
             20B magic # (PE32+)
            0.00 linker version
            2400 size of code
            1200 size of initialized data
               0 size of uninitialized data
            5114 entry point (0000000010005114)
            3000 base of code
        10000000 image base (0000000010000000 to 0000000010008FFF)
            1000 section alignment
             200 file alignment
            5.00 operating system version
            0.00 image version
            5.00 subsystem version
               0 Win32 version
            9000 size of image
             400 size of headers
               0 checksum
               2 subsystem (Windows GUI)
             140 DLL characteristics
                   Dynamic base
                   NX compatible
            1000 size of stack reserve
            1000 size of stack commit
           10000 size of heap reserve
               0 size of heap commit
               0 loader flags
              10 number of directories
            8000 [      5C] RVA [size] of Export Directory
            6000 [     130] RVA [size] of Import Directory
               0 [       0] RVA [size] of Resource Directory
               0 [       0] RVA [size] of Exception Directory
               0 [       0] RVA [size] of Certificates Directory
            7000 [       C] RVA [size] of Base Relocation Directory
               0 [       0] RVA [size] of Debug Directory
               0 [       0] RVA [size] of Architecture Directory
               0 [       0] RVA [size] of Global Pointer Directory
               0 [       0] RVA [size] of Thread Storage Directory
               0 [       0] RVA [size] of Load Configuration Directory
               0 [       0] RVA [size] of Bound Import Directory
               0 [       0] RVA [size] of Import Address Table Directory
               0 [       0] RVA [size] of Delay Import Directory
               0 [       0] RVA [size] of COM Descriptor Directory
               0 [       0] RVA [size] of Reserved Directory


SECTION HEADER #1
   .data name
    2000 virtual size
    1000 virtual address (0000000010001000 to 0000000010002FFF)
     C00 size of raw data
    2A00 file pointer to raw data (00002A00 to 000035FF)
       0 file pointer to relocation table
       0 file pointer to line numbers
       0 number of relocations
       0 number of line numbers
C0000040 flags
         Initialized Data
         Read Write

RAW DATA #1
  0000000010001000: 00 00 00 00 00 00 00 00 00 00 00 00 00 00 00 00  ................
  0000000010001010: 00 00 00 00 00 00 00 00 00 00 00 00 00 00 00 00  ................
  0000000010001020: 00 00 00 00 00 00 00 00 00 00 00 00 00 00 00 00  ................
  0000000010001030: 00 00 00 00 00 00 00 00 00 00 00 00 00 00 00 00  ................
  0000000010001040: 00 00 00 00 00 00 00 00 00 00 00 00 00 00 00 00  ................
  0000000010001050: 00 00 00 00 00 00 00 00 00 00 00 00 00 00 00 00  ................
  0000000010001060: 00 00 00 00 00 00 00 00 00 00 00 00 00 00 00 00  ................
  0000000010001070: 00 00 00 00 00 00 00 00 00 00 00 00 00 00 00 00  ................
  0000000010001080: 00 00 00 00 00 00 00 00 00 00 00 00 00 00 00 00  ................
  0000000010001090: 00 00 00 00 00 00 00 00 00 00 00 00 00 00 00 00  ................
  00000000100010A0: 00 00 00 00 00 00 00 00 00 00 00 00 00 00 00 00  ................
  00000000100010B0: 00 00 00 00 00 00 00 00 00 00 00 00 00 00 00 00  ................
  00000000100010C0: 00 00 00 00 00 00 00 00 00 00 00 00 00 00 00 00  ................
  00000000100010D0: 00 00 00 00 00 00 00 00 00 00 00 00 00 00 00 00  ................
  00000000100010E0: 00 00 00 00 00 00 00 00 00 00 00 00 00 00 00 00  ................
  00000000100010F0: 00 00 00 00 00 00 00 00 00 00 00 00 00 00 00 00  ................
  0000000010001100: 00 00 00 00 00 00 00 00 00 00 00 00 00 00 00 00  ................
  0000000010001110: 00 00 00 00 00 00 00 00 00 00 00 00 00 00 00 00  ................
  0000000010001120: 00 00 00 00 00 00 00 00 00 00 00 00 00 00 00 00  ................
  0000000010001130: 00 00 00 00 00 00 00 00 00 00 00 00 00 00 00 00  ................
  0000000010001140: 00 00 00 00 00 00 00 00 00 00 00 00 00 00 00 00  ................
  0000000010001150: 00 00 00 00 00 00 00 00 00 00 00 00 00 00 00 00  ................
  0000000010001160: 00 00 00 00 00 00 00 00 00 00 00 00 00 00 00 00  ................
  0000000010001170: 00 00 00 00 00 00 00 00 00 00 00 00 00 00 00 00  ................
  0000000010001180: 00 00 00 00 00 00 00 00 00 00 00 00 00 00 00 00  ................
  0000000010001190: 00 00 00 00 00 00 00 00 00 00 00 00 00 00 00 00  ................
  00000000100011A0: 00 00 00 00 00 00 00 00 00 00 00 00 00 00 00 00  ................
  00000000100011B0: 00 00 00 00 00 00 00 00 00 00 00 00 00 00 00 00  ................
  00000000100011C0: 00 00 00 00 00 00 00 00 00 00 00 00 00 00 00 00  ................
  00000000100011D0: 00 00 00 00 00 00 00 00 00 00 00 00 00 00 00 00  ................
  00000000100011E0: 00 00 00 00 00 00 00 00 00 00 00 00 00 00 00 00  ................
  00000000100011F0: 00 00 00 00 00 00 00 00 00 00 00 00 00 00 00 00  ................
  0000000010001200: 00 00 00 00 00 00 00 00 00 00 00 00 00 00 00 00  ................
  0000000010001210: 00 00 00 00 00 00 00 00 00 00 00 00 00 00 00 00  ................
  0000000010001220: 00 00 00 00 00 00 00 00 00 00 00 00 00 00 00 00  ................
  0000000010001230: 00 00 00 00 00 00 00 00 00 00 00 00 00 00 00 00  ................
  0000000010001240: 00 00 00 00 00 00 00 00 00 00 00 00 00 00 00 00  ................
  0000000010001250: 00 00 00 00 00 00 00 00 00 00 00 00 00 00 00 00  ................
  0000000010001260: 00 00 00 00 00 00 00 00 00 00 00 00 00 00 00 00  ................
  0000000010001270: 00 00 00 00 00 00 00 00 00 00 00 00 00 00 00 00  ................
  0000000010001280: 00 00 00 00 00 00 00 00 00 00 00 00 00 00 00 00  ................
  0000000010001290: 00 00 00 00 00 00 00 00 00 00 00 00 00 00 00 00  ................
  00000000100012A0: 00 00 00 00 00 00 00 00 00 00 00 00 00 00 00 00  ................
  00000000100012B0: 00 00 00 00 00 00 00 00 00 00 00 00 00 00 00 00  ................
  00000000100012C0: 00 00 00 00 00 00 00 00 00 00 00 00 00 00 00 00  ................
  00000000100012D0: 00 00 00 00 00 00 00 00 00 00 00 00 00 00 00 00  ................
  00000000100012E0: 00 00 00 00 00 00 00 00 00 00 00 00 00 00 00 00  ................
  00000000100012F0: 00 00 00 00 00 00 00 00 00 00 00 00 00 00 00 00  ................
  0000000010001300: 00 00 00 00 00 00 00 00 00 00 00 00 00 00 00 00  ................
  0000000010001310: 00 00 00 00 00 00 00 00 00 00 00 00 00 00 00 00  ................
  0000000010001320: 00 00 00 00 00 00 00 00 00 00 00 00 00 00 00 00  ................
  0000000010001330: 00 00 00 00 00 00 00 00 00 00 00 00 00 00 00 00  ................
  0000000010001340: 00 00 00 00 00 00 00 00 00 00 00 00 00 00 00 00  ................
  0000000010001350: 00 00 00 00 00 00 00 00 00 00 00 00 00 00 00 00  ................
  0000000010001360: 00 00 00 00 00 00 00 00 00 00 00 00 00 00 00 00  ................
  0000000010001370: 00 00 00 00 00 00 00 00 00 00 00 00 00 00 00 00  ................
  0000000010001380: 00 00 00 00 00 00 00 00 00 00 00 00 00 00 00 00  ................
  0000000010001390: 00 00 00 00 00 00 00 00 00 00 00 00 00 00 00 00  ................
  00000000100013A0: 00 00 00 00 00 00 00 00 00 00 00 00 00 00 00 00  ................
  00000000100013B0: 00 00 00 00 00 00 00 00 00 00 00 00 00 00 00 00  ................
  00000000100013C0: 00 00 00 00 00 00 00 00 00 00 00 00 00 00 00 00  ................
  00000000100013D0: 00 00 00 00 00 00 00 00 00 00 00 00 00 00 00 00  ................
  00000000100013E0: 00 00 00 00 00 00 00 00 00 00 00 00 00 00 00 00  ................
  00000000100013F0: 00 00 00 00 00 00 00 00 00 00 00 00 00 00 00 00  ................
  0000000010001400: 00 00 00 00 00 00 00 00 00 00 00 00 00 00 00 00  ................
  0000000010001410: 00 00 00 00 00 00 00 00 00 00 00 00 00 00 00 00  ................
  0000000010001420: 00 00 00 00 00 00 00 00 00 00 00 00 00 00 00 00  ................
  0000000010001430: 00 00 00 00 00 00 00 00 00 00 00 00 00 00 00 00  ................
  0000000010001440: 00 00 00 00 00 00 00 00 00 00 00 00 00 00 00 00  ................
  0000000010001450: 00 00 00 00 00 00 00 00 00 00 00 00 00 00 00 00  ................
  0000000010001460: 00 00 00 00 00 00 00 00 00 00 00 00 00 00 00 00  ................
  0000000010001470: 00 00 00 00 00 00 00 00 00 00 00 00 00 00 00 00  ................
  0000000010001480: 00 00 00 00 00 00 00 00 00 00 00 00 00 00 00 00  ................
  0000000010001490: 00 00 00 00 00 00 00 00 00 00 00 00 00 00 00 00  ................
  00000000100014A0: 00 00 00 00 00 00 00 00 00 00 00 00 00 00 00 00  ................
  00000000100014B0: 00 00 00 00 00 00 00 00 00 00 00 00 00 00 00 00  ................
  00000000100014C0: 00 00 00 00 00 00 53 00 79 00 73 00 2E 00 64 00  ......S.y.s...d.
  00000000100014D0: 6C 00 6C 00 00 00 43 00 6F 00 6E 00 73 00 6F 00  l.l...C.o.n.s.o.
  00000000100014E0: 6C 00 65 00 2E 00 64 00 6C 00 6C 00 00 00 42 00  l.e...d.l.l...B.
  00000000100014F0: 61 00 73 00 65 00 2E 00 64 00 6C 00 6C 00 00 00  a.s.e...d.l.l...
  0000000010001500: 50 00 52 00 4F 00 43 00 45 00 44 00 55 00 52 00  P.R.O.C.E.D.U.R.
  0000000010001510: 45 00 00 00 41 00 44 00 44 00 52 00 45 00 53 00  E...A.D.D.R.E.S.
  0000000010001520: 53 00 00 00 50 00 4F 00 49 00 4E 00 54 00 45 00  S...P.O.I.N.T.E.
  0000000010001530: 52 00 00 00 4D 00 4F 00 44 00 55 00 4C 00 45 00  R...M.O.D.U.L.E.
  0000000010001540: 00 00 49 00 4D 00 50 00 4F 00 52 00 54 00 00 00  ..I.M.P.O.R.T...
  0000000010001550: 52 00 45 00 54 00 55 00 52 00 4E 00 00 00 52 00  R.E.T.U.R.N...R.
  0000000010001560: 45 00 50 00 45 00 41 00 54 00 00 00 52 00 45 00  E.P.E.A.T...R.E.
  0000000010001570: 43 00 4F 00 52 00 44 00 00 00 57 00 48 00 49 00  C.O.R.D...W.H.I.
  0000000010001580: 4C 00 45 00 00 00 55 00 4E 00 54 00 49 00 4C 00  L.E...U.N.T.I.L.
  0000000010001590: 00 00 43 00 4F 00 4E 00 53 00 54 00 00 00 42 00  ..C.O.N.S.T...B.
  00000000100015A0: 45 00 47 00 49 00 4E 00 00 00 41 00 52 00 52 00  E.G.I.N...A.R.R.
  00000000100015B0: 41 00 59 00 00 00 46 00 41 00 4C 00 53 00 45 00  A.Y...F.A.L.S.E.
  00000000100015C0: 00 00 45 00 4C 00 53 00 49 00 46 00 00 00 43 00  ..E.L.S.I.F...C.
  00000000100015D0: 41 00 53 00 45 00 00 00 54 00 59 00 50 00 45 00  A.S.E...T.Y.P.E.
  00000000100015E0: 00 00 54 00 52 00 55 00 45 00 00 00 54 00 48 00  ..T.R.U.E...T.H.
  00000000100015F0: 45 00 4E 00 00 00 45 00 4C 00 53 00 45 00 00 00  E.N...E.L.S.E...
  0000000010001600: 46 00 4F 00 52 00 00 00 4D 00 4F 00 44 00 00 00  F.O.R...M.O.D...
  0000000010001610: 44 00 49 00 56 00 00 00 56 00 41 00 52 00 00 00  D.I.V...V.A.R...
  0000000010001620: 4E 00 49 00 4C 00 00 00 45 00 4E 00 44 00 00 00  N.I.L...E.N.D...
  0000000010001630: 42 00 59 00 00 00 49 00 53 00 00 00 49 00 4E 00  B.Y...I.S...I.N.
  0000000010001640: 00 00 54 00 4F 00 00 00 4F 00 52 00 00 00 4F 00  ..T.O...O.R...O.
  0000000010001650: 46 00 00 00 44 00 4F 00 00 00 49 00 46 00 00 00  F...D.O...I.F...
  0000000010001660: 00 00 00 00 00 00 00 00 00 00 00 00 00 00 00 00  ................
  0000000010001670: 00 00 7E 00 00 00 7C 00 00 00 7D 00 00 00 7B 00  ..~...|...}...{.
  0000000010001680: 00 00 7B 00 00 00 5F 00 00 00 5E 00 00 00 5D 00  ..{..._...^...].
  0000000010001690: 00 00 5B 00 00 00 61 00 00 00 5B 00 00 00 3D 00  ..[...a...[...=.
  00000000100016A0: 00 00 3E 00 00 00 3D 00 00 00 3D 00 00 00 3C 00  ..>...=...=...<.
  00000000100016B0: 00 00 3B 00 00 00 3D 00 00 00 3A 00 00 00 3A 00  ..;...=...:...:.
  00000000100016C0: 00 00 2F 00 00 00 2E 00 00 00 2E 00 00 00 2D 00  ../...........-.
  00000000100016D0: 00 00 2C 00 00 00 2B 00 00 00 2A 00 00 00 29 00  ..,...+...*...).
  00000000100016E0: 00 00 2A 00 00 00 28 00 00 00 26 00 00 00 24 00  ..*...(...&...$.
  00000000100016F0: 00 00 23 00 00 00 30 00 00 00 41 00 00 00 20 00  ..#...0...A... .
  0000000010001700: 00 00 29 00 00 00 2A 00 00 00 2A 00 00 00 28 00  ..)...*...*...(.
  0000000010001710: 00 00 24 00 00 00 57 00 72 00 6F 00 6E 00 67 00  ..$...W.r.o.n.g.
  0000000010001720: 20 00 63 00 6F 00 6D 00 70 00 69 00 6C 00 65 00   .c.o.m.p.i.l.e.
  0000000010001730: 72 00 20 00 64 00 69 00 72 00 65 00 63 00 74 00  r. .d.i.r.e.c.t.
  0000000010001740: 69 00 76 00 65 00 00 00 00 00 00 00 00 00 00 00  i.v.e...........
  0000000010001750: 00 00 00 00 00 00 2A 00 00 00 2A 00 00 00 42 00  ......*...*...B.
  0000000010001760: 61 00 64 00 20 00 69 00 6E 00 74 00 65 00 67 00  a.d. .i.n.t.e.g.
  0000000010001770: 65 00 72 00 00 00 54 00 6F 00 6F 00 20 00 6C 00  e.r...T.o.o. .l.
  0000000010001780: 61 00 72 00 67 00 65 00 00 00 54 00 6F 00 6F 00  a.r.g.e...T.o.o.
  0000000010001790: 20 00 6C 00 61 00 72 00 67 00 65 00 00 00 44 00   .l.a.r.g.e...D.
  00000000100017A0: 69 00 67 00 69 00 74 00 3F 00 00 00 39 00 00 00  i.g.i.t.?...9...
  00000000100017B0: 30 00 00 00 39 00 00 00 30 00 00 00 2B 00 00 00  0...9...0...+...
  00000000100017C0: 2D 00 00 00 44 00 00 00 45 00 00 00 39 00 00 00  -...D...E...9...
  00000000100017D0: 30 00 00 00 42 00 61 00 64 00 20 00 69 00 6E 00  0...B.a.d. .i.n.
  00000000100017E0: 74 00 65 00 67 00 65 00 72 00 00 00 54 00 6F 00  t.e.g.e.r...T.o.
  00000000100017F0: 6F 00 20 00 6C 00 61 00 72 00 67 00 65 00 00 00  o. .l.a.r.g.e...
  0000000010001800: 2E 00 00 00 2E 00 00 00 52 00 00 00 49 00 6C 00  ........R...I.l.
  0000000010001810: 6C 00 65 00 67 00 61 00 6C 00 20 00 76 00 61 00  l.e.g.a.l. .v.a.
  0000000010001820: 6C 00 75 00 65 00 00 00 58 00 00 00 58 00 00 00  l.u.e...X...X...
  0000000010001830: 52 00 00 00 48 00 00 00 46 00 00 00 41 00 00 00  R...H...F...A...
  0000000010001840: 39 00 00 00 30 00 00 00 54 00 6F 00 6F 00 20 00  9...0...T.o.o. .
  0000000010001850: 6D 00 61 00 6E 00 79 00 20 00 64 00 69 00 67 00  m.a.n.y. .d.i.g.
  0000000010001860: 69 00 74 00 73 00 00 00 53 00 74 00 72 00 69 00  i.t.s...S.t.r.i.
  0000000010001870: 6E 00 67 00 20 00 74 00 6F 00 6F 00 20 00 6C 00  n.g. .t.o.o. .l.
  0000000010001880: 6F 00 6E 00 67 00 00 00 48 00 65 00 78 00 20 00  o.n.g...H.e.x. .
  0000000010001890: 64 00 69 00 67 00 69 00 74 00 20 00 65 00 78 00  d.i.g.i.t. .e.x.
  00000000100018A0: 70 00 65 00 63 00 74 00 65 00 64 00 00 00 46 00  p.e.c.t.e.d...F.
  00000000100018B0: 00 00 41 00 00 00 39 00 00 00 30 00 00 00 48 00  ..A...9...0...H.
  00000000100018C0: 65 00 78 00 20 00 64 00 69 00 67 00 69 00 74 00  e.x. .d.i.g.i.t.
  00000000100018D0: 20 00 65 00 78 00 70 00 65 00 63 00 74 00 65 00   .e.x.p.e.c.t.e.
  00000000100018E0: 64 00 00 00 46 00 00 00 41 00 00 00 39 00 00 00  d...F...A...9...
  00000000100018F0: 30 00 00 00 20 00 00 00 24 00 00 00 53 00 74 00  0... ...$...S.t.
  0000000010001900: 72 00 69 00 6E 00 67 00 20 00 74 00 6F 00 6F 00  r.i.n.g. .t.o.o.
  0000000010001910: 20 00 6C 00 6F 00 6E 00 67 00 00 00 7A 00 00 00   .l.o.n.g...z...
  0000000010001920: 61 00 00 00 5A 00 00 00 5F 00 00 00 41 00 00 00  a...Z..._...A...
  0000000010001930: 39 00 00 00 30 00 00 00 00 00 00 00 00 00 00 00  9...0...........
  0000000010001940: 00 00 00 00 00 00 00 00 00 00 3A 00 20 00 00 00  ..........:. ...
  0000000010001950: 00 00 00 00 00 00 00 00 00 00 00 00 66 00 69 00  ............f.i.
  0000000010001960: 6C 00 65 00 20 00 70 00 6F 00 73 00 20 00 00 00  l.e. .p.o.s. ...
  0000000010001970: 00 00 00 00 00 00 00 00 00 00 00 00 00 00 00 00  ................
  0000000010001980: 00 00 00 00 00 00 00 00 00 00 00 00 00 00 00 00  ................
  0000000010001990: 00 00 00 00 00 00 00 00 00 00 00 00 00 00 00 00  ................
  00000000100019A0: 00 00 00 00 00 00 00 00 00 00 00 00 00 00 00 00  ................
  00000000100019B0: 00 00 00 00 00 00 00 00 00 00 00 00 00 00 00 00  ................
  00000000100019C0: 00 00 00 00 00 00 00 00 00 00 00 00 00 00 00 00  ................
  00000000100019D0: 00 00 00 00 00 00 00 00 00 00 00 00 00 00 00 00  ................
  00000000100019E0: 00 00 00 00 00 00 00 00 00 00 00 00 00 00 00 00  ................
  00000000100019F0: 00 00 00 00 00 00 00 00 00 00 00 00 00 00 00 00  ................
  0000000010001A00: 00 00 00 00 00 00 00 00 00 00 00 00 00 00 00 00  ................
  0000000010001A10: 00 00 00 00 00 00 00 00 70 60 00 00 00 00 00 00  ........p`......
  0000000010001A20: 90 60 00 00 00 00 00 00 B0 60 00 00 00 00 00 00  .`......°`......
  0000000010001A30: D0 60 00 00 00 00 00 00 F0 60 00 00 00 00 00 00  ?`......?`......
  0000000010001A40: 10 61 00 00 00 00 00 00 00 00 00 00 00 00 00 00  .a..............
  0000000010001A50: 00 00 00 00 00 00 00 00 00 00 00 00 00 00 00 00  ................
  0000000010001A60: 00 00 00 00 00 00 00 00 00 00 00 00 00 00 00 00  ................
  0000000010001A70: 00 00 00 00 00 00 00 00 00 00 00 00 00 00 00 00  ................
  0000000010001A80: 00 00 00 00 00 00 00 00 00 00 00 00 00 00 00 00  ................
  0000000010001A90: 00 00 00 00 00 00 00 00 00 00 00 00 00 00 00 00  ................
  0000000010001AA0: 00 00 00 00 00 00 00 00 00 00 00 00 00 00 00 00  ................
  0000000010001AB0: 00 00 00 00 00 00 00 00 00 00 00 00 00 00 00 00  ................
  0000000010001AC0: 00 00 00 00 00 00 00 00 00 00 00 00 00 00 00 00  ................
  0000000010001AD0: 00 00 00 00 00 00 00 00 00 00 00 00 00 00 00 00  ................
  0000000010001AE0: 00 00 00 00 00 00 00 00 00 00 00 00 00 00 00 00  ................
  0000000010001AF0: 00 00 00 00 00 00 00 00 00 00 00 00 00 00 00 00  ................
  0000000010001B00: 00 00 00 00 00 00 00 00 00 00 00 00 00 00 00 00  ................
  0000000010001B10: 00 00 00 00 00 00 00 00 00 00 00 00 00 00 00 00  ................
  0000000010001B20: 00 00 00 00 00 00 00 00 00 00 00 00 00 00 00 00  ................
  0000000010001B30: 00 00 00 00 00 00 00 00 00 00 00 00 00 00 00 00  ................
  0000000010001B40: 00 00 00 00 00 00 00 00 00 00 00 00 00 00 00 00  ................
  0000000010001B50: 00 00 00 00 00 00 00 00 00 00 00 00 00 00 00 00  ................
  0000000010001B60: 00 00 00 00 00 00 00 00 00 00 00 00 00 00 00 00  ................
  0000000010001B70: 00 00 00 00 00 00 00 00 00 00 00 00 00 00 00 00  ................
  0000000010001B80: 00 00 00 00 00 00 00 00 00 00 00 00 00 00 00 00  ................
  0000000010001B90: 00 00 00 00 00 00 00 00 00 00 00 00 00 00 00 00  ................
  0000000010001BA0: 00 00 00 00 00 00 00 00 00 00 00 00 00 00 00 00  ................
  0000000010001BB0: 00 00 00 00 00 00 00 00 00 00 00 00 00 00 00 00  ................
  0000000010001BC0: 00 00 00 00 00 00 00 00 00 00 00 00 00 00 00 00  ................
  0000000010001BD0: 00 00 00 00 00 00 00 00 00 00 00 00 00 00 00 00  ................
  0000000010001BE0: 00 00 00 00 00 00 00 00 00 00 00 00 00 00 00 00  ................
  0000000010001BF0: 00 00 00 00 00 00 00 00 00 00 00 00 00 00 00 00  ................

SECTION HEADER #2
   .text name
    2307 virtual size
    3000 virtual address (0000000010003000 to 0000000010005306)
    2400 size of raw data
     400 file pointer to raw data (00000400 to 000027FF)
       0 file pointer to relocation table
       0 file pointer to line numbers
       0 number of relocations
       0 number of line numbers
60000020 flags
         Code
         Execute Read

  0000000010003000: 55                 push        rbp
  0000000010003001: 48 8B EC           mov         rbp,rsp
  0000000010003004: 48 83 EC 20        sub         rsp,20h
  0000000010003008: 48 8D 0D 39 FD FF  lea         rcx,[0000000010002D48h]
                    FF
  000000001000300F: 48 8B 15 62 E9 FF  mov         rdx,qword ptr [0000000010001978h]
                    FF
  0000000010003016: FF 15 64 E9 FF FF  call        qword ptr [0000000010001980h]
  000000001000301C: 48 83 C4 20        add         rsp,20h
  0000000010003020: C9                 leave
  0000000010003021: C3                 ret
  0000000010003022: 55                 push        rbp
  0000000010003023: 48 8B EC           mov         rbp,rsp
  0000000010003026: 48 83 EC 10        sub         rsp,10h
  000000001000302A: 48 89 4D 10        mov         qword ptr [rbp+10h],rcx
  000000001000302E: 48 89 55 18        mov         qword ptr [rbp+18h],rdx
  0000000010003032: 48 83 EC 20        sub         rsp,20h
  0000000010003036: E8 C5 FF FF FF     call        0000000010003000
  000000001000303B: 48 83 C4 20        add         rsp,20h
  000000001000303F: 48 89 45 F8        mov         qword ptr [rbp-8],rax
  0000000010003043: 48 8B 45 F8        mov         rax,qword ptr [rbp-8]
  0000000010003047: 48 8B 0D 02 FD FF  mov         rcx,qword ptr [0000000010002D50h]
                    FF
  000000001000304E: 48 3B C1           cmp         rax,rcx
  0000000010003051: 0F 8E 83 00 00 00  jle         00000000100030DA
  0000000010003057: 48 8B 05 02 FD FF  mov         rax,qword ptr [0000000010002D60h]
                    FF
  000000001000305E: 48 83 F8 19        cmp         rax,19h
  0000000010003062: 0F 8D 72 00 00 00  jge         00000000100030DA
  0000000010003068: 48 83 EC 20        sub         rsp,20h
  000000001000306C: 48 8D 0D E9 E8 FF  lea         rcx,[000000001000195Ch]
                    FF
  0000000010003073: BA 0A 00 00 00     mov         edx,0Ah
  0000000010003078: FF 15 F2 E8 FF FF  call        qword ptr [0000000010001970h]
  000000001000307E: 48 83 C4 20        add         rsp,20h
  0000000010003082: 48 83 EC 20        sub         rsp,20h
  0000000010003086: 48 8B 4D F8        mov         rcx,qword ptr [rbp-8]
  000000001000308A: FF 15 C0 E8 FF FF  call        qword ptr [0000000010001950h]
  0000000010003090: 48 83 C4 20        add         rsp,20h
  0000000010003094: 48 83 EC 20        sub         rsp,20h
  0000000010003098: 48 8D 0D AB E8 FF  lea         rcx,[000000001000194Ah]
                    FF
  000000001000309F: BA 03 00 00 00     mov         edx,3
  00000000100030A4: FF 15 C6 E8 FF FF  call        qword ptr [0000000010001970h]
  00000000100030AA: 48 83 C4 20        add         rsp,20h
  00000000100030AE: 48 83 EC 20        sub         rsp,20h
  00000000100030B2: 48 8B 4D 10        mov         rcx,qword ptr [rbp+10h]
  00000000100030B6: 48 8B 55 18        mov         rdx,qword ptr [rbp+18h]
  00000000100030BA: FF 15 B0 E8 FF FF  call        qword ptr [0000000010001970h]
  00000000100030C0: 48 83 C4 20        add         rsp,20h
  00000000100030C4: 48 83 EC 20        sub         rsp,20h
  00000000100030C8: FF 15 72 E8 FF FF  call        qword ptr [0000000010001940h]
  00000000100030CE: 48 83 C4 20        add         rsp,20h
  00000000100030D2: 48 83 05 86 FC FF  add         qword ptr [0000000010002D60h],1
                    FF 01
  00000000100030DA: 48 8B 45 F8        mov         rax,qword ptr [rbp-8]
  00000000100030DE: 48 83 C0 04        add         rax,4
  00000000100030E2: 0F 80 05 00 00 00  jo          00000000100030ED
  00000000100030E8: E9 08 00 00 00     jmp         00000000100030F5
  00000000100030ED: B0 06              mov         al,6
  00000000100030EF: B9 EE 0A 00 00     mov         ecx,0AEEh
  00000000100030F4: CC                 int         3
  00000000100030F5: 48 89 05 54 FC FF  mov         qword ptr [0000000010002D50h],rax
                    FF
  00000000100030FC: C9                 leave
  00000000100030FD: C3                 ret
  00000000100030FE: 55                 push        rbp
  00000000100030FF: 48 8B EC           mov         rbp,rsp
  0000000010003102: 48 83 EC 10        sub         rsp,10h
  0000000010003106: 48 B8 FF FF FF FF  mov         rax,0FFFFFFFFFFFFFFFFh
                    FF FF FF FF
  0000000010003110: 48 89 45 F8        mov         qword ptr [rbp-8],rax
  0000000010003114: 48 83 EC 20        sub         rsp,20h
  0000000010003118: 48 8D 0D 29 FC FF  lea         rcx,[0000000010002D48h]
                    FF
  000000001000311F: 48 8B 15 52 E8 FF  mov         rdx,qword ptr [0000000010001978h]
                    FF
  0000000010003126: 4C 8D 45 F8        lea         r8,[rbp-8]
  000000001000312A: FF 15 08 E8 FF FF  call        qword ptr [0000000010001938h]
  0000000010003130: 48 83 C4 20        add         rsp,20h
  0000000010003134: 48 8B 45 F8        mov         rax,qword ptr [rbp-8]
  0000000010003138: 48 83 F8 FF        cmp         rax,0FFFFFFFFFFFFFFFFh
  000000001000313C: 0F 85 19 00 00 00  jne         000000001000315B
  0000000010003142: B8 01 00 00 00     mov         eax,1
  0000000010003147: 88 05 10 FC FF FF  mov         byte ptr [0000000010002D5Dh],al
  000000001000314D: 31 C0              xor         eax,eax
  000000001000314F: 66 89 05 08 FC FF  mov         word ptr [0000000010002D5Eh],ax
                    FF
  0000000010003156: E9 0B 00 00 00     jmp         0000000010003166
  000000001000315B: 48 8B 45 F8        mov         rax,qword ptr [rbp-8]
  000000001000315F: 66 89 05 F8 FB FF  mov         word ptr [0000000010002D5Eh],ax
                    FF
  0000000010003166: C9                 leave
  0000000010003167: C3                 ret
  0000000010003168: 55                 push        rbp
  0000000010003169: 48 8B EC           mov         rbp,rsp
  000000001000316C: 48 83 EC 10        sub         rsp,10h
  0000000010003170: 56                 push        rsi
  0000000010003171: 57                 push        rdi
  0000000010003172: 48 89 4D 10        mov         qword ptr [rbp+10h],rcx
  0000000010003176: 31 C0              xor         eax,eax
  0000000010003178: 48 89 45 F8        mov         qword ptr [rbp-8],rax
  000000001000317C: 48 8B 45 F8        mov         rax,qword ptr [rbp-8]
  0000000010003180: 48 83 F8 3F        cmp         rax,3Fh
  0000000010003184: 0F 8D 38 00 00 00  jge         00000000100031C2
  000000001000318A: 48 8B 45 F8        mov         rax,qword ptr [rbp-8]
  000000001000318E: 48 83 F8 40        cmp         rax,40h
  0000000010003192: 0F 83 05 00 00 00  jae         000000001000319D
  0000000010003198: E9 08 00 00 00     jmp         00000000100031A5
  000000001000319D: B0 01              mov         al,1
  000000001000319F: B9 13 0C 00 00     mov         ecx,0C13h
  00000000100031A4: CC                 int         3
  00000000100031A5: 48 C1 E0 01        shl         rax,1
  00000000100031A9: 48 8D 0D BC FD FF  lea         rcx,[0000000010002F6Ch]
                    FF
  00000000100031B0: 48 03 C1           add         rax,rcx
  00000000100031B3: 0F B7 0D A4 FB FF  movzx       ecx,word ptr [0000000010002D5Eh]
                    FF
  00000000100031BA: 66 89 08           mov         word ptr [rax],cx
  00000000100031BD: 48 83 45 F8 01     add         qword ptr [rbp-8],1
  00000000100031C2: 48 83 EC 20        sub         rsp,20h
  00000000100031C6: E8 33 FF FF FF     call        00000000100030FE
  00000000100031CB: 48 83 C4 20        add         rsp,20h
  00000000100031CF: 0F B7 05 88 FB FF  movzx       eax,word ptr [0000000010002D5Eh]
                    FF
  00000000100031D6: 48 83 F8 30        cmp         rax,30h
  00000000100031DA: 0F 82 66 00 00 00  jb          0000000010003246
  00000000100031E0: 0F B7 05 77 FB FF  movzx       eax,word ptr [0000000010002D5Eh]
                    FF
  00000000100031E7: 48 83 F8 39        cmp         rax,39h
  00000000100031EB: 0F 86 11 00 00 00  jbe         0000000010003202
  00000000100031F1: 0F B7 05 66 FB FF  movzx       eax,word ptr [0000000010002D5Eh]
                    FF
  00000000100031F8: 48 83 F8 41        cmp         rax,41h
  00000000100031FC: 0F 82 44 00 00 00  jb          0000000010003246
  0000000010003202: 0F B7 05 55 FB FF  movzx       eax,word ptr [0000000010002D5Eh]
                    FF
  0000000010003209: 48 83 F8 5F        cmp         rax,5Fh
  000000001000320D: 0F 84 22 00 00 00  je          0000000010003235
  0000000010003213: 0F B7 05 44 FB FF  movzx       eax,word ptr [0000000010002D5Eh]
                    FF
  000000001000321A: 48 83 F8 5A        cmp         rax,5Ah
  000000001000321E: 0F 86 11 00 00 00  jbe         0000000010003235
  0000000010003224: 0F B7 05 33 FB FF  movzx       eax,word ptr [0000000010002D5Eh]
                    FF
  000000001000322B: 48 83 F8 61        cmp         rax,61h
  000000001000322F: 0F 82 11 00 00 00  jb          0000000010003246
  0000000010003235: 0F B7 05 22 FB FF  movzx       eax,word ptr [0000000010002D5Eh]
                    FF
  000000001000323C: 48 83 F8 7A        cmp         rax,7Ah
  0000000010003240: 0F 86 36 FF FF FF  jbe         000000001000317C
  0000000010003246: 48 8B 45 F8        mov         rax,qword ptr [rbp-8]
  000000001000324A: 48 83 F8 40        cmp         rax,40h
  000000001000324E: 0F 83 05 00 00 00  jae         0000000010003259
  0000000010003254: E9 08 00 00 00     jmp         0000000010003261
  0000000010003259: B0 01              mov         al,1
  000000001000325B: B9 9B 0C 00 00     mov         ecx,0C9Bh
  0000000010003260: CC                 int         3
  0000000010003261: 48 C1 E0 01        shl         rax,1
  0000000010003265: 48 8D 0D 00 FD FF  lea         rcx,[0000000010002F6Ch]
                    FF
  000000001000326C: 48 03 C1           add         rax,rcx
  000000001000326F: 31 C9              xor         ecx,ecx
  0000000010003271: 66 89 08           mov         word ptr [rax],cx
  0000000010003274: 48 8B 45 F8        mov         rax,qword ptr [rbp-8]
  0000000010003278: 48 83 F8 0A        cmp         rax,0Ah
  000000001000327C: 0F 8D A3 01 00 00  jge         0000000010003425
  0000000010003282: 48 8B 45 F8        mov         rax,qword ptr [rbp-8]
  0000000010003286: 48 83 E8 01        sub         rax,1
  000000001000328A: 0F 80 05 00 00 00  jo          0000000010003295
  0000000010003290: E9 08 00 00 00     jmp         000000001000329D
  0000000010003295: B0 06              mov         al,6
  0000000010003297: B9 C3 0C 00 00     mov         ecx,0CC3h
  000000001000329C: CC                 int         3
  000000001000329D: 48 83 F8 0A        cmp         rax,0Ah
  00000000100032A1: 0F 83 05 00 00 00  jae         00000000100032AC
  00000000100032A7: E9 08 00 00 00     jmp         00000000100032B4
  00000000100032AC: B0 01              mov         al,1
  00000000100032AE: B9 C3 0C 00 00     mov         ecx,0CC3h
  00000000100032B3: CC                 int         3
  00000000100032B4: 48 C1 E0 03        shl         rax,3
  00000000100032B8: 48 8D 0D 31 FA FF  lea         rcx,[0000000010002CF0h]
                    FF
  00000000100032BF: 48 03 C1           add         rax,rcx
  00000000100032C2: 48 8B 00           mov         rax,qword ptr [rax]
  00000000100032C5: 48 89 45 F0        mov         qword ptr [rbp-10h],rax
  00000000100032C9: 48 8B 45 F0        mov         rax,qword ptr [rbp-10h]
  00000000100032CD: 48 83 F8 23        cmp         rax,23h
  00000000100032D1: 0F 83 05 00 00 00  jae         00000000100032DC
  00000000100032D7: E9 08 00 00 00     jmp         00000000100032E4
  00000000100032DC: B0 01              mov         al,1
  00000000100032DE: B9 F8 0C 00 00     mov         ecx,0CF8h
  00000000100032E3: CC                 int         3
  00000000100032E4: 48 69 C0 88 00 00  imul        rax,rax,88h
                    00
  00000000100032EB: 48 8D 0D 66 E7 FF  lea         rcx,[0000000010001A58h]
                    FF
  00000000100032F2: 48 03 C1           add         rax,rcx
  00000000100032F5: 48 8D 3D 70 FC FF  lea         rdi,[0000000010002F6Ch]
                    FF
  00000000100032FC: 48 8B F0           mov         rsi,rax
  00000000100032FF: 48 83 C6 08        add         rsi,8
  0000000010003303: 33 C9              xor         ecx,ecx
  0000000010003305: 48 83 F9 40        cmp         rcx,40h
  0000000010003309: 0F 84 3A 00 00 00  je          0000000010003349
  000000001000330F: 66 83 3E 00        cmp         word ptr [rsi],0
  0000000010003313: 0F 84 30 00 00 00  je          0000000010003349
  0000000010003319: 48 83 F9 40        cmp         rcx,40h
  000000001000331D: 0F 84 3A 00 00 00  je          000000001000335D
  0000000010003323: 66 8B 17           mov         dx,word ptr [rdi]
  0000000010003326: 66 85 D2           test        dx,dx
  0000000010003329: 0F 84 2E 00 00 00  je          000000001000335D
  000000001000332F: 66 3B 16           cmp         dx,word ptr [rsi]
  0000000010003332: 0F 85 25 00 00 00  jne         000000001000335D
  0000000010003338: 48 83 C7 02        add         rdi,2
  000000001000333C: 48 83 C6 02        add         rsi,2
  0000000010003340: 48 83 C1 01        add         rcx,1
  0000000010003344: E9 BC FF FF FF     jmp         0000000010003305
  0000000010003349: 48 83 F9 40        cmp         rcx,40h
  000000001000334D: 0F 84 4D 00 00 00  je          00000000100033A0
  0000000010003353: 66 83 3F 00        cmp         word ptr [rdi],0
  0000000010003357: 0F 84 43 00 00 00  je          00000000100033A0
  000000001000335D: 48 8B 45 F0        mov         rax,qword ptr [rbp-10h]
  0000000010003361: 48 8B 4D F8        mov         rcx,qword ptr [rbp-8]
  0000000010003365: 48 83 F9 0A        cmp         rcx,0Ah
  0000000010003369: 0F 83 05 00 00 00  jae         0000000010003374
  000000001000336F: E9 08 00 00 00     jmp         000000001000337C
  0000000010003374: B0 01              mov         al,1
  0000000010003376: B9 0B 0D 00 00     mov         ecx,0D0Bh
  000000001000337B: CC                 int         3
  000000001000337C: 48 C1 E1 03        shl         rcx,3
  0000000010003380: 48 8D 15 69 F9 FF  lea         rdx,[0000000010002CF0h]
                    FF
  0000000010003387: 48 03 CA           add         rcx,rdx
  000000001000338A: 48 8B 09           mov         rcx,qword ptr [rcx]
  000000001000338D: 48 3B C1           cmp         rax,rcx
  0000000010003390: 0F 8D 0A 00 00 00  jge         00000000100033A0
  0000000010003396: 48 83 45 F0 01     add         qword ptr [rbp-10h],1
  000000001000339B: E9 29 FF FF FF     jmp         00000000100032C9
  00000000100033A0: 48 8B 45 F0        mov         rax,qword ptr [rbp-10h]
  00000000100033A4: 48 8B 4D F8        mov         rcx,qword ptr [rbp-8]
  00000000100033A8: 48 83 F9 0A        cmp         rcx,0Ah
  00000000100033AC: 0F 83 05 00 00 00  jae         00000000100033B7
  00000000100033B2: E9 08 00 00 00     jmp         00000000100033BF
  00000000100033B7: B0 01              mov         al,1
  00000000100033B9: B9 2E 0D 00 00     mov         ecx,0D2Eh
  00000000100033BE: CC                 int         3
  00000000100033BF: 48 C1 E1 03        shl         rcx,3
  00000000100033C3: 48 8D 15 26 F9 FF  lea         rdx,[0000000010002CF0h]
                    FF
  00000000100033CA: 48 03 CA           add         rcx,rdx
  00000000100033CD: 48 8B 09           mov         rcx,qword ptr [rcx]
  00000000100033D0: 48 3B C1           cmp         rax,rcx
  00000000100033D3: 0F 8D 3B 00 00 00  jge         0000000010003414
  00000000100033D9: 48 8B 45 F0        mov         rax,qword ptr [rbp-10h]
  00000000100033DD: 48 83 F8 23        cmp         rax,23h
  00000000100033E1: 0F 83 05 00 00 00  jae         00000000100033EC
  00000000100033E7: E9 08 00 00 00     jmp         00000000100033F4
  00000000100033EC: B0 01              mov         al,1
  00000000100033EE: B9 45 0D 00 00     mov         ecx,0D45h
  00000000100033F3: CC                 int         3
  00000000100033F4: 48 69 C0 88 00 00  imul        rax,rax,88h
                    00
  00000000100033FB: 48 8D 0D 56 E6 FF  lea         rcx,[0000000010001A58h]
                    FF
  0000000010003402: 48 03 C1           add         rax,rcx
  0000000010003405: 48 8B 00           mov         rax,qword ptr [rax]
  0000000010003408: 48 8B 4D 10        mov         rcx,qword ptr [rbp+10h]
  000000001000340C: 48 89 01           mov         qword ptr [rcx],rax
  000000001000340F: E9 0C 00 00 00     jmp         0000000010003420
  0000000010003414: B8 1F 00 00 00     mov         eax,1Fh
  0000000010003419: 48 8B 4D 10        mov         rcx,qword ptr [rbp+10h]
  000000001000341D: 48 89 01           mov         qword ptr [rcx],rax
  0000000010003420: E9 0C 00 00 00     jmp         0000000010003431
  0000000010003425: B8 1F 00 00 00     mov         eax,1Fh
  000000001000342A: 48 8B 4D 10        mov         rcx,qword ptr [rbp+10h]
  000000001000342E: 48 89 01           mov         qword ptr [rcx],rax
  0000000010003431: 5F                 pop         rdi
  0000000010003432: 5E                 pop         rsi
  0000000010003433: C9                 leave
  0000000010003434: C3                 ret
  0000000010003435: 55                 push        rbp
  0000000010003436: 48 8B EC           mov         rbp,rsp
  0000000010003439: 48 83 EC 10        sub         rsp,10h
  000000001000343D: 48 89 4D 10        mov         qword ptr [rbp+10h],rcx
  0000000010003441: 31 C0              xor         eax,eax
  0000000010003443: 48 89 45 F8        mov         qword ptr [rbp-8],rax
  0000000010003447: 48 83 EC 20        sub         rsp,20h
  000000001000344B: E8 AE FC FF FF     call        00000000100030FE
  0000000010003450: 48 83 C4 20        add         rsp,20h
  0000000010003454: 0F B6 05 02 F9 FF  movzx       eax,byte ptr [0000000010002D5Dh]
                    FF
  000000001000345B: 85 C0              test        eax,eax
  000000001000345D: 0F 85 90 00 00 00  jne         00000000100034F3
  0000000010003463: 0F B7 05 F4 F8 FF  movzx       eax,word ptr [0000000010002D5Eh]
                    FF
  000000001000346A: 0F B7 4D 10        movzx       ecx,word ptr [rbp+10h]
  000000001000346E: 48 3B C1           cmp         rax,rcx
  0000000010003471: 0F 84 7C 00 00 00  je          00000000100034F3
  0000000010003477: 48 8B 45 F8        mov         rax,qword ptr [rbp-8]
  000000001000347B: 48 81 F8 FF 00 00  cmp         rax,0FFh
                    00
  0000000010003482: 0F 8D 40 00 00 00  jge         00000000100034C8
  0000000010003488: 48 8B 45 F8        mov         rax,qword ptr [rbp-8]
  000000001000348C: 48 81 F8 00 01 00  cmp         rax,100h
                    00
  0000000010003493: 0F 83 05 00 00 00  jae         000000001000349E
  0000000010003499: E9 08 00 00 00     jmp         00000000100034A6
  000000001000349E: B0 01              mov         al,1
  00000000100034A0: B9 1E 0E 00 00     mov         ecx,0E1Eh
  00000000100034A5: CC                 int         3
  00000000100034A6: 48 C1 E0 01        shl         rax,1
  00000000100034AA: 48 8D 0D BB F8 FF  lea         rcx,[0000000010002D6Ch]
                    FF
  00000000100034B1: 48 03 C1           add         rax,rcx
  00000000100034B4: 0F B7 0D A3 F8 FF  movzx       ecx,word ptr [0000000010002D5Eh]
                    FF
  00000000100034BB: 66 89 08           mov         word ptr [rax],cx
  00000000100034BE: 48 83 45 F8 01     add         qword ptr [rbp-8],1
  00000000100034C3: E9 19 00 00 00     jmp         00000000100034E1
  00000000100034C8: 48 83 EC 20        sub         rsp,20h
  00000000100034CC: 48 8D 0D 29 E4 FF  lea         rcx,[00000000100018FCh]
                    FF
  00000000100034D3: BA 10 00 00 00     mov         edx,10h
  00000000100034D8: E8 45 FB FF FF     call        0000000010003022
  00000000100034DD: 48 83 C4 20        add         rsp,20h
  00000000100034E1: 48 83 EC 20        sub         rsp,20h
  00000000100034E5: E8 14 FC FF FF     call        00000000100030FE
  00000000100034EA: 48 83 C4 20        add         rsp,20h
  00000000100034EE: E9 61 FF FF FF     jmp         0000000010003454
  00000000100034F3: 48 8B 45 F8        mov         rax,qword ptr [rbp-8]
  00000000100034F7: 48 81 F8 00 01 00  cmp         rax,100h
                    00
  00000000100034FE: 0F 83 05 00 00 00  jae         0000000010003509
  0000000010003504: E9 08 00 00 00     jmp         0000000010003511
  0000000010003509: B0 01              mov         al,1
  000000001000350B: B9 6C 0E 00 00     mov         ecx,0E6Ch
  0000000010003510: CC                 int         3
  0000000010003511: 48 C1 E0 01        shl         rax,1
  0000000010003515: 48 8D 0D 50 F8 FF  lea         rcx,[0000000010002D6Ch]
                    FF
  000000001000351C: 48 03 C1           add         rax,rcx
  000000001000351F: 31 C9              xor         ecx,ecx
  0000000010003521: 66 89 08           mov         word ptr [rax],cx
  0000000010003524: 48 83 EC 20        sub         rsp,20h
  0000000010003528: E8 D1 FB FF FF     call        00000000100030FE
  000000001000352D: 48 83 C4 20        add         rsp,20h
  0000000010003531: 48 8B 45 F8        mov         rax,qword ptr [rbp-8]
  0000000010003535: 48 83 C0 01        add         rax,1
  0000000010003539: 0F 80 05 00 00 00  jo          0000000010003544
  000000001000353F: E9 08 00 00 00     jmp         000000001000354C
  0000000010003544: B0 06              mov         al,6
  0000000010003546: B9 8C 0E 00 00     mov         ecx,0E8Ch
  000000001000354B: CC                 int         3
  000000001000354C: 48 89 05 9D FA FF  mov         qword ptr [0000000010002FF0h],rax
                    FF
  0000000010003553: C9                 leave
  0000000010003554: C3                 ret
  0000000010003555: 55                 push        rbp
  0000000010003556: 48 8B EC           mov         rbp,rsp
  0000000010003559: 48 83 EC 20        sub         rsp,20h
  000000001000355D: 31 C0              xor         eax,eax
  000000001000355F: 48 89 45 F8        mov         qword ptr [rbp-8],rax
  0000000010003563: 48 83 EC 20        sub         rsp,20h
  0000000010003567: E8 92 FB FF FF     call        00000000100030FE
  000000001000356C: 48 83 C4 20        add         rsp,20h
  0000000010003570: 0F B6 05 E6 F7 FF  movzx       eax,byte ptr [0000000010002D5Dh]
                    FF
  0000000010003577: 85 C0              test        eax,eax
  0000000010003579: 0F 84 72 02 00 00  je          00000000100037F1
  000000001000357F: 0F B7 05 D8 F7 FF  movzx       eax,word ptr [0000000010002D5Eh]
                    FF
  0000000010003586: 48 83 F8 24        cmp         rax,24h
  000000001000358A: 0F 84 61 02 00 00  je          00000000100037F1
  0000000010003590: 0F B7 05 C7 F7 FF  movzx       eax,word ptr [0000000010002D5Eh]
                    FF
  0000000010003597: 48 83 F8 20        cmp         rax,20h
  000000001000359B: 0F 84 22 00 00 00  je          00000000100035C3
  00000000100035A1: 0F B7 05 B6 F7 FF  movzx       eax,word ptr [0000000010002D5Eh]
                    FF
  00000000100035A8: 48 83 F8 09        cmp         rax,9
  00000000100035AC: 0F 84 11 00 00 00  je          00000000100035C3
  00000000100035B2: 0F B7 05 A5 F7 FF  movzx       eax,word ptr [0000000010002D5Eh]
                    FF
  00000000100035B9: 48 83 F8 0D        cmp         rax,0Dh
  00000000100035BD: 0F 85 12 00 00 00  jne         00000000100035D5
  00000000100035C3: 48 83 EC 20        sub         rsp,20h
  00000000100035C7: E8 32 FB FF FF     call        00000000100030FE
  00000000100035CC: 48 83 C4 20        add         rsp,20h
  00000000100035D0: E9 BB FF FF FF     jmp         0000000010003590
  00000000100035D5: 0F B7 05 82 F7 FF  movzx       eax,word ptr [0000000010002D5Eh]
                    FF
  00000000100035DC: 48 83 F8 30        cmp         rax,30h
  00000000100035E0: 0F 82 38 00 00 00  jb          000000001000361E
  00000000100035E6: 0F B7 05 71 F7 FF  movzx       eax,word ptr [0000000010002D5Eh]
                    FF
  00000000100035ED: 48 83 F8 39        cmp         rax,39h
  00000000100035F1: 0F 87 27 00 00 00  ja          000000001000361E
  00000000100035F7: 0F B7 05 60 F7 FF  movzx       eax,word ptr [0000000010002D5Eh]
                    FF
  00000000100035FE: 48 83 E8 30        sub         rax,30h
  0000000010003602: 0F 80 05 00 00 00  jo          000000001000360D
  0000000010003608: E9 08 00 00 00     jmp         0000000010003615
  000000001000360D: B0 06              mov         al,6
  000000001000360F: B9 79 0F 00 00     mov         ecx,0F79h
  0000000010003614: CC                 int         3
  0000000010003615: 48 89 45 F0        mov         qword ptr [rbp-10h],rax
  0000000010003619: E9 68 00 00 00     jmp         0000000010003686
  000000001000361E: 0F B7 05 39 F7 FF  movzx       eax,word ptr [0000000010002D5Eh]
                    FF
  0000000010003625: 48 83 F8 41        cmp         rax,41h
  0000000010003629: 0F 82 38 00 00 00  jb          0000000010003667
  000000001000362F: 0F B7 05 28 F7 FF  movzx       eax,word ptr [0000000010002D5Eh]
                    FF
  0000000010003636: 48 83 F8 46        cmp         rax,46h
  000000001000363A: 0F 87 27 00 00 00  ja          0000000010003667
  0000000010003640: 0F B7 05 17 F7 FF  movzx       eax,word ptr [0000000010002D5Eh]
                    FF
  0000000010003647: 48 83 E8 37        sub         rax,37h
  000000001000364B: 0F 80 05 00 00 00  jo          0000000010003656
  0000000010003651: E9 08 00 00 00     jmp         000000001000365E
  0000000010003656: B0 06              mov         al,6
  0000000010003658: B9 B3 0F 00 00     mov         ecx,0FB3h
  000000001000365D: CC                 int         3
  000000001000365E: 48 89 45 F0        mov         qword ptr [rbp-10h],rax
  0000000010003662: E9 1F 00 00 00     jmp         0000000010003686
  0000000010003667: 31 C0              xor         eax,eax
  0000000010003669: 48 89 45 F0        mov         qword ptr [rbp-10h],rax
  000000001000366D: 48 83 EC 20        sub         rsp,20h
  0000000010003671: 48 8D 0D 46 E2 FF  lea         rcx,[00000000100018BEh]
                    FF
  0000000010003678: BA 13 00 00 00     mov         edx,13h
  000000001000367D: E8 A0 F9 FF FF     call        0000000010003022
  0000000010003682: 48 83 C4 20        add         rsp,20h
  0000000010003686: 48 83 EC 20        sub         rsp,20h
  000000001000368A: E8 6F FA FF FF     call        00000000100030FE
  000000001000368F: 48 83 C4 20        add         rsp,20h
  0000000010003693: 0F B7 05 C4 F6 FF  movzx       eax,word ptr [0000000010002D5Eh]
                    FF
  000000001000369A: 48 83 F8 30        cmp         rax,30h
  000000001000369E: 0F 82 38 00 00 00  jb          00000000100036DC
  00000000100036A4: 0F B7 05 B3 F6 FF  movzx       eax,word ptr [0000000010002D5Eh]
                    FF
  00000000100036AB: 48 83 F8 39        cmp         rax,39h
  00000000100036AF: 0F 87 27 00 00 00  ja          00000000100036DC
  00000000100036B5: 0F B7 05 A2 F6 FF  movzx       eax,word ptr [0000000010002D5Eh]
                    FF
  00000000100036BC: 48 83 E8 30        sub         rax,30h
  00000000100036C0: 0F 80 05 00 00 00  jo          00000000100036CB
  00000000100036C6: E9 08 00 00 00     jmp         00000000100036D3
  00000000100036CB: B0 06              mov         al,6
  00000000100036CD: B9 28 10 00 00     mov         ecx,1028h
  00000000100036D2: CC                 int         3
  00000000100036D3: 48 89 45 E8        mov         qword ptr [rbp-18h],rax
  00000000100036D7: E9 68 00 00 00     jmp         0000000010003744
  00000000100036DC: 0F B7 05 7B F6 FF  movzx       eax,word ptr [0000000010002D5Eh]
                    FF
  00000000100036E3: 48 83 F8 41        cmp         rax,41h
  00000000100036E7: 0F 82 38 00 00 00  jb          0000000010003725
  00000000100036ED: 0F B7 05 6A F6 FF  movzx       eax,word ptr [0000000010002D5Eh]
                    FF
  00000000100036F4: 48 83 F8 46        cmp         rax,46h
  00000000100036F8: 0F 87 27 00 00 00  ja          0000000010003725
  00000000100036FE: 0F B7 05 59 F6 FF  movzx       eax,word ptr [0000000010002D5Eh]
                    FF
  0000000010003705: 48 83 E8 37        sub         rax,37h
  0000000010003709: 0F 80 05 00 00 00  jo          0000000010003714
  000000001000370F: E9 08 00 00 00     jmp         000000001000371C
  0000000010003714: B0 06              mov         al,6
  0000000010003716: B9 62 10 00 00     mov         ecx,1062h
  000000001000371B: CC                 int         3
  000000001000371C: 48 89 45 E8        mov         qword ptr [rbp-18h],rax
  0000000010003720: E9 1F 00 00 00     jmp         0000000010003744
  0000000010003725: 31 C0              xor         eax,eax
  0000000010003727: 48 89 45 E8        mov         qword ptr [rbp-18h],rax
  000000001000372B: 48 83 EC 20        sub         rsp,20h
  000000001000372F: 48 8D 0D 52 E1 FF  lea         rcx,[0000000010001888h]
                    FF
  0000000010003736: BA 13 00 00 00     mov         edx,13h
  000000001000373B: E8 E2 F8 FF FF     call        0000000010003022
  0000000010003740: 48 83 C4 20        add         rsp,20h
  0000000010003744: 48 8B 45 F8        mov         rax,qword ptr [rbp-8]
  0000000010003748: 48 81 F8 FF 00 00  cmp         rax,0FFh
                    00
  000000001000374F: 0F 8D 71 00 00 00  jge         00000000100037C6
  0000000010003755: 48 8B 45 F8        mov         rax,qword ptr [rbp-8]
  0000000010003759: 48 81 F8 00 01 00  cmp         rax,100h
                    00
  0000000010003760: 0F 83 05 00 00 00  jae         000000001000376B
  0000000010003766: E9 08 00 00 00     jmp         0000000010003773
  000000001000376B: B0 01              mov         al,1
  000000001000376D: B9 B2 10 00 00     mov         ecx,10B2h
  0000000010003772: CC                 int         3
  0000000010003773: 48 C1 E0 01        shl         rax,1
  0000000010003777: 48 8D 0D EE F5 FF  lea         rcx,[0000000010002D6Ch]
                    FF
  000000001000377E: 48 03 C1           add         rax,rcx
  0000000010003781: 48 8B 4D F0        mov         rcx,qword ptr [rbp-10h]
  0000000010003785: 48 69 C9 10 00 00  imul        rcx,rcx,10h
                    00
  000000001000378C: 0F 80 05 00 00 00  jo          0000000010003797
  0000000010003792: E9 08 00 00 00     jmp         000000001000379F
  0000000010003797: B0 06              mov         al,6
  0000000010003799: B9 C1 10 00 00     mov         ecx,10C1h
  000000001000379E: CC                 int         3
  000000001000379F: 48 8B 55 E8        mov         rdx,qword ptr [rbp-18h]
  00000000100037A3: 48 03 CA           add         rcx,rdx
  00000000100037A6: 0F 80 05 00 00 00  jo          00000000100037B1
  00000000100037AC: E9 08 00 00 00     jmp         00000000100037B9
  00000000100037B1: B0 06              mov         al,6
  00000000100037B3: B9 C4 10 00 00     mov         ecx,10C4h
  00000000100037B8: CC                 int         3
  00000000100037B9: 66 89 08           mov         word ptr [rax],cx
  00000000100037BC: 48 83 45 F8 01     add         qword ptr [rbp-8],1
  00000000100037C1: E9 19 00 00 00     jmp         00000000100037DF
  00000000100037C6: 48 83 EC 20        sub         rsp,20h
  00000000100037CA: 48 8D 0D 97 E0 FF  lea         rcx,[0000000010001868h]
                    FF
  00000000100037D1: BA 10 00 00 00     mov         edx,10h
  00000000100037D6: E8 47 F8 FF FF     call        0000000010003022
  00000000100037DB: 48 83 C4 20        add         rsp,20h
  00000000100037DF: 48 83 EC 20        sub         rsp,20h
  00000000100037E3: E8 16 F9 FF FF     call        00000000100030FE
  00000000100037E8: 48 83 C4 20        add         rsp,20h
  00000000100037EC: E9 7F FD FF FF     jmp         0000000010003570
  00000000100037F1: 48 83 EC 20        sub         rsp,20h
  00000000100037F5: E8 04 F9 FF FF     call        00000000100030FE
  00000000100037FA: 48 83 C4 20        add         rsp,20h
  00000000100037FE: 48 8B 45 F8        mov         rax,qword ptr [rbp-8]
  0000000010003802: 48 89 05 E7 F7 FF  mov         qword ptr [0000000010002FF0h],rax
                    FF
  0000000010003809: C9                 leave
  000000001000380A: C3                 ret
  000000001000380B: 55                 push        rbp
  000000001000380C: 48 8B EC           mov         rbp,rsp
  000000001000380F: 48 83 EC 10        sub         rsp,10h
  0000000010003813: 48 89 4D 10        mov         qword ptr [rbp+10h],rcx
  0000000010003817: B8 00 00 80 FF     mov         eax,0FF800000h
  000000001000381C: 66 0F 6E C0        movd        xmm0,eax
  0000000010003820: F3 0F 11 45 FC     movss       dword ptr [rbp-4],xmm0
  0000000010003825: B8 00 00 C0 FF     mov         eax,0FFC00000h
  000000001000382A: 66 0F 6E C0        movd        xmm0,eax
  000000001000382E: F3 0F 11 45 F8     movss       dword ptr [rbp-8],xmm0
  0000000010003833: 48 8B 45 10        mov         rax,qword ptr [rbp+10h]
  0000000010003837: 48 85 C0           test        rax,rax
  000000001000383A: 0F 8E 45 00 00 00  jle         0000000010003885
  0000000010003840: 48 8B 45 10        mov         rax,qword ptr [rbp+10h]
  0000000010003844: 48 83 E0 01        and         rax,1
  0000000010003848: 0F 84 13 00 00 00  je          0000000010003861
  000000001000384E: F3 0F 10 45 F8     movss       xmm0,dword ptr [rbp-8]
  0000000010003853: F3 0F 10 4D FC     movss       xmm1,dword ptr [rbp-4]
  0000000010003858: F3 0F 59 C1        mulss       xmm0,xmm1
  000000001000385C: F3 0F 11 45 FC     movss       dword ptr [rbp-4],xmm0
  0000000010003861: F3 0F 10 45 F8     movss       xmm0,dword ptr [rbp-8]
  0000000010003866: F3 0F 10 4D F8     movss       xmm1,dword ptr [rbp-8]
  000000001000386B: F3 0F 59 C1        mulss       xmm0,xmm1
  000000001000386F: F3 0F 11 45 F8     movss       dword ptr [rbp-8],xmm0
  0000000010003874: 48 8B 45 10        mov         rax,qword ptr [rbp+10h]
  0000000010003878: 48 C1 F8 01        sar         rax,1
  000000001000387C: 48 89 45 10        mov         qword ptr [rbp+10h],rax
  0000000010003880: E9 AE FF FF FF     jmp         0000000010003833
  0000000010003885: F3 0F 10 45 FC     movss       xmm0,dword ptr [rbp-4]
  000000001000388A: C9                 leave
  000000001000388B: C3                 ret
  000000001000388C: 55                 push        rbp
  000000001000388D: 48 8B EC           mov         rbp,rsp
  0000000010003890: 48 81 EC F0 00 00  sub         rsp,0F0h
                    00
  0000000010003897: 48 89 4D 10        mov         qword ptr [rbp+10h],rcx
  000000001000389B: 31 C0              xor         eax,eax
  000000001000389D: 48 89 05 54 F7 FF  mov         qword ptr [0000000010002FF8h],rax
                    FF
  00000000100038A4: 31 C0              xor         eax,eax
  00000000100038A6: 48 89 45 F8        mov         qword ptr [rbp-8],rax
  00000000100038AA: 31 C0              xor         eax,eax
  00000000100038AC: 48 89 45 E0        mov         qword ptr [rbp-20h],rax
  00000000100038B0: 31 C0              xor         eax,eax
  00000000100038B2: 48 89 45 F0        mov         qword ptr [rbp-10h],rax
  00000000100038B6: 48 8B 45 E0        mov         rax,qword ptr [rbp-20h]
  00000000100038BA: 48 83 F8 15        cmp         rax,15h
  00000000100038BE: 0F 8D 51 00 00 00  jge         0000000010003915
  00000000100038C4: 48 8B 45 E0        mov         rax,qword ptr [rbp-20h]
  00000000100038C8: 48 83 F8 15        cmp         rax,15h
  00000000100038CC: 0F 83 05 00 00 00  jae         00000000100038D7
  00000000100038D2: E9 08 00 00 00     jmp         00000000100038DF
  00000000100038D7: B0 01              mov         al,1
  00000000100038D9: B9 FD 12 00 00     mov         ecx,12FDh
  00000000100038DE: CC                 int         3
  00000000100038DF: 48 C1 E0 03        shl         rax,3
  00000000100038E3: 48 03 C5           add         rax,rbp
  00000000100038E6: 0F B7 0D 71 F4 FF  movzx       ecx,word ptr [0000000010002D5Eh]
                    FF
  00000000100038ED: 48 83 E9 30        sub         rcx,30h
  00000000100038F1: 0F 80 05 00 00 00  jo          00000000100038FC
  00000000100038F7: E9 08 00 00 00     jmp         0000000010003904
  00000000100038FC: B0 06              mov         al,6
  00000000100038FE: B9 0F 13 00 00     mov         ecx,130Fh
  0000000010003903: CC                 int         3
  0000000010003904: 48 89 88 20 FF FF  mov         qword ptr [rax+FFFFFFFFFFFFFF20h],rcx
                    FF
  000000001000390B: 48 83 45 E0 01     add         qword ptr [rbp-20h],1
  0000000010003910: E9 1F 00 00 00     jmp         0000000010003934
  0000000010003915: 48 83 EC 20        sub         rsp,20h
  0000000010003919: 48 8D 0D 28 DF FF  lea         rcx,[0000000010001848h]
                    FF
  0000000010003920: BA 10 00 00 00     mov         edx,10h
  0000000010003925: E8 F8 F6 FF FF     call        0000000010003022
  000000001000392A: 48 83 C4 20        add         rsp,20h
  000000001000392E: 31 C0              xor         eax,eax
  0000000010003930: 48 89 45 E0        mov         qword ptr [rbp-20h],rax
  0000000010003934: 48 83 EC 20        sub         rsp,20h
  0000000010003938: E8 C1 F7 FF FF     call        00000000100030FE
  000000001000393D: 48 83 C4 20        add         rsp,20h
  0000000010003941: 0F B7 05 16 F4 FF  movzx       eax,word ptr [0000000010002D5Eh]
                    FF
  0000000010003948: 48 83 F8 30        cmp         rax,30h
  000000001000394C: 0F 82 33 00 00 00  jb          0000000010003985
  0000000010003952: 0F B7 05 05 F4 FF  movzx       eax,word ptr [0000000010002D5Eh]
                    FF
  0000000010003959: 48 83 F8 39        cmp         rax,39h
  000000001000395D: 0F 86 11 00 00 00  jbe         0000000010003974
  0000000010003963: 0F B7 05 F4 F3 FF  movzx       eax,word ptr [0000000010002D5Eh]
                    FF
  000000001000396A: 48 83 F8 41        cmp         rax,41h
  000000001000396E: 0F 82 11 00 00 00  jb          0000000010003985
  0000000010003974: 0F B7 05 E3 F3 FF  movzx       eax,word ptr [0000000010002D5Eh]
                    FF
  000000001000397B: 48 83 F8 46        cmp         rax,46h
  000000001000397F: 0F 86 31 FF FF FF  jbe         00000000100038B6
  0000000010003985: 0F B7 05 D2 F3 FF  movzx       eax,word ptr [0000000010002D5Eh]
                    FF
  000000001000398C: 48 83 F8 48        cmp         rax,48h
  0000000010003990: 0F 84 22 00 00 00  je          00000000100039B8
  0000000010003996: 0F B7 05 C1 F3 FF  movzx       eax,word ptr [0000000010002D5Eh]
                    FF
  000000001000399D: 48 83 F8 52        cmp         rax,52h
  00000000100039A1: 0F 84 11 00 00 00  je          00000000100039B8
  00000000100039A7: 0F B7 05 B0 F3 FF  movzx       eax,word ptr [0000000010002D5Eh]
                    FF
  00000000100039AE: 48 83 F8 58        cmp         rax,58h
  00000000100039B2: 0F 85 69 01 00 00  jne         0000000010003B21
  00000000100039B8: 48 8B 45 F8        mov         rax,qword ptr [rbp-8]
  00000000100039BC: 48 83 F8 15        cmp         rax,15h
  00000000100039C0: 0F 83 05 00 00 00  jae         00000000100039CB
  00000000100039C6: E9 08 00 00 00     jmp         00000000100039D3
  00000000100039CB: B0 01              mov         al,1
  00000000100039CD: B9 E1 13 00 00     mov         ecx,13E1h
  00000000100039D2: CC                 int         3
  00000000100039D3: 48 C1 E0 03        shl         rax,3
  00000000100039D7: 48 03 C5           add         rax,rbp
  00000000100039DA: 48 8B 80 20 FF FF  mov         rax,qword ptr [rax+FFFFFFFFFFFFFF20h]
                    FF
  00000000100039E1: 48 89 45 D0        mov         qword ptr [rbp-30h],rax
  00000000100039E5: 48 8B 45 D0        mov         rax,qword ptr [rbp-30h]
  00000000100039E9: 48 83 F8 0A        cmp         rax,0Ah
  00000000100039ED: 0F 8C 1F 00 00 00  jl          0000000010003A12
  00000000100039F3: 48 8B 45 D0        mov         rax,qword ptr [rbp-30h]
  00000000100039F7: 48 83 E8 07        sub         rax,7
  00000000100039FB: 0F 80 05 00 00 00  jo          0000000010003A06
  0000000010003A01: E9 08 00 00 00     jmp         0000000010003A0E
  0000000010003A06: B0 06              mov         al,6
  0000000010003A08: B9 03 14 00 00     mov         ecx,1403h
  0000000010003A0D: CC                 int         3
  0000000010003A0E: 48 89 45 D0        mov         qword ptr [rbp-30h],rax
  0000000010003A12: 48 8B 45 F0        mov         rax,qword ptr [rbp-10h]
  0000000010003A16: 48 69 C0 10 00 00  imul        rax,rax,10h
                    00
  0000000010003A1D: 0F 80 05 00 00 00  jo          0000000010003A28
  0000000010003A23: E9 08 00 00 00     jmp         0000000010003A30
  0000000010003A28: B0 06              mov         al,6
  0000000010003A2A: B9 17 14 00 00     mov         ecx,1417h
  0000000010003A2F: CC                 int         3
  0000000010003A30: 48 8B 4D D0        mov         rcx,qword ptr [rbp-30h]
  0000000010003A34: 48 03 C1           add         rax,rcx
  0000000010003A37: 0F 80 05 00 00 00  jo          0000000010003A42
  0000000010003A3D: E9 08 00 00 00     jmp         0000000010003A4A
  0000000010003A42: B0 06              mov         al,6
  0000000010003A44: B9 1A 14 00 00     mov         ecx,141Ah
  0000000010003A49: CC                 int         3
  0000000010003A4A: 48 89 45 F0        mov         qword ptr [rbp-10h],rax
  0000000010003A4E: 48 83 45 F8 01     add         qword ptr [rbp-8],1
  0000000010003A53: 48 8B 45 F8        mov         rax,qword ptr [rbp-8]
  0000000010003A57: 48 8B 4D E0        mov         rcx,qword ptr [rbp-20h]
  0000000010003A5B: 48 3B C1           cmp         rax,rcx
  0000000010003A5E: 0F 85 54 FF FF FF  jne         00000000100039B8
  0000000010003A64: 0F B7 05 F3 F2 FF  movzx       eax,word ptr [0000000010002D5Eh]
                    FF
  0000000010003A6B: 48 83 F8 58        cmp         rax,58h
  0000000010003A6F: 0F 85 54 00 00 00  jne         0000000010003AC9
  0000000010003A75: B8 14 00 00 00     mov         eax,14h
  0000000010003A7A: 48 8B 4D 10        mov         rcx,qword ptr [rbp+10h]
  0000000010003A7E: 48 89 01           mov         qword ptr [rcx],rax
  0000000010003A81: 48 8B 45 F0        mov         rax,qword ptr [rbp-10h]
  0000000010003A85: 48 81 F8 00 01 00  cmp         rax,100h
                    00
  0000000010003A8C: 0F 8D 10 00 00 00  jge         0000000010003AA2
  0000000010003A92: 48 8B 45 F0        mov         rax,qword ptr [rbp-10h]
  0000000010003A96: 48 89 05 5B F5 FF  mov         qword ptr [0000000010002FF8h],rax
                    FF
  0000000010003A9D: E9 22 00 00 00     jmp         0000000010003AC4
  0000000010003AA2: 48 83 EC 20        sub         rsp,20h
  0000000010003AA6: 48 8D 0D 5F DD FF  lea         rcx,[000000001000180Ch]
                    FF
  0000000010003AAD: BA 0E 00 00 00     mov         edx,0Eh
  0000000010003AB2: E8 6B F5 FF FF     call        0000000010003022
  0000000010003AB7: 48 83 C4 20        add         rsp,20h
  0000000010003ABB: 31 C0              xor         eax,eax
  0000000010003ABD: 48 89 05 34 F5 FF  mov         qword ptr [0000000010002FF8h],rax
                    FF
  0000000010003AC4: E9 46 00 00 00     jmp         0000000010003B0F
  0000000010003AC9: 0F B7 05 8E F2 FF  movzx       eax,word ptr [0000000010002D5Eh]
                    FF
  0000000010003AD0: 48 83 F8 52        cmp         rax,52h
  0000000010003AD4: 0F 85 1E 00 00 00  jne         0000000010003AF8
  0000000010003ADA: B8 16 00 00 00     mov         eax,16h
  0000000010003ADF: 48 8B 4D 10        mov         rcx,qword ptr [rbp+10h]
  0000000010003AE3: 48 89 01           mov         qword ptr [rcx],rax
  0000000010003AE6: F3 0F 10 45 F0     movss       xmm0,dword ptr [rbp-10h]
  0000000010003AEB: F3 0F 11 05 F9 F4  movss       dword ptr [0000000010002FECh],xmm0
                    FF FF
  0000000010003AF3: E9 17 00 00 00     jmp         0000000010003B0F
  0000000010003AF8: B8 15 00 00 00     mov         eax,15h
  0000000010003AFD: 48 8B 4D 10        mov         rcx,qword ptr [rbp+10h]
  0000000010003B01: 48 89 01           mov         qword ptr [rcx],rax
  0000000010003B04: 48 8B 45 F0        mov         rax,qword ptr [rbp-10h]
  0000000010003B08: 48 89 05 E9 F4 FF  mov         qword ptr [0000000010002FF8h],rax
                    FF
  0000000010003B0F: 48 83 EC 20        sub         rsp,20h
  0000000010003B13: E8 E6 F5 FF FF     call        00000000100030FE
  0000000010003B18: 48 83 C4 20        add         rsp,20h
  0000000010003B1C: E9 2D 07 00 00     jmp         000000001000424E
  0000000010003B21: 0F B7 05 36 F2 FF  movzx       eax,word ptr [0000000010002D5Eh]
                    FF
  0000000010003B28: 48 83 F8 2E        cmp         rax,2Eh
  0000000010003B2C: 0F 85 65 05 00 00  jne         0000000010004097
  0000000010003B32: 48 83 EC 20        sub         rsp,20h
  0000000010003B36: E8 C3 F5 FF FF     call        00000000100030FE
  0000000010003B3B: 48 83 C4 20        add         rsp,20h
  0000000010003B3F: 0F B7 05 18 F2 FF  movzx       eax,word ptr [0000000010002D5Eh]
                    FF
  0000000010003B46: 48 83 F8 2E        cmp         rax,2Eh
  0000000010003B4A: 0F 85 A4 01 00 00  jne         0000000010003CF4
  0000000010003B50: B8 7F 00 00 00     mov         eax,7Fh
  0000000010003B55: 66 89 05 02 F2 FF  mov         word ptr [0000000010002D5Eh],ax
                    FF
  0000000010003B5C: 48 8B 45 F8        mov         rax,qword ptr [rbp-8]
  0000000010003B60: 48 83 F8 15        cmp         rax,15h
  0000000010003B64: 0F 83 05 00 00 00  jae         0000000010003B6F
  0000000010003B6A: E9 08 00 00 00     jmp         0000000010003B77
  0000000010003B6F: B0 01              mov         al,1
  0000000010003B71: B9 AB 15 00 00     mov         ecx,15ABh
  0000000010003B76: CC                 int         3
  0000000010003B77: 48 C1 E0 03        shl         rax,3
  0000000010003B7B: 48 03 C5           add         rax,rbp
  0000000010003B7E: 48 8B 80 20 FF FF  mov         rax,qword ptr [rax+FFFFFFFFFFFFFF20h]
                    FF
  0000000010003B85: 48 83 F8 0A        cmp         rax,0Ah
  0000000010003B89: 0F 8D 1A 01 00 00  jge         0000000010003CA9
  0000000010003B8F: 48 8B 45 F0        mov         rax,qword ptr [rbp-10h]
  0000000010003B93: 48 8B 4D F8        mov         rcx,qword ptr [rbp-8]
  0000000010003B97: 48 83 F9 15        cmp         rcx,15h
  0000000010003B9B: 0F 83 05 00 00 00  jae         0000000010003BA6
  0000000010003BA1: E9 08 00 00 00     jmp         0000000010003BAE
  0000000010003BA6: B0 01              mov         al,1
  0000000010003BA8: B9 CE 15 00 00     mov         ecx,15CEh
  0000000010003BAD: CC                 int         3
  0000000010003BAE: 48 C1 E1 03        shl         rcx,3
  0000000010003BB2: 48 03 CD           add         rcx,rbp
  0000000010003BB5: 48 BA FF FF FF FF  mov         rdx,7FFFFFFFFFFFFFFFh
                    FF FF FF 7F
  0000000010003BBF: 48 8B 89 20 FF FF  mov         rcx,qword ptr [rcx+FFFFFFFFFFFFFF20h]
                    FF
  0000000010003BC6: 48 87 D1           xchg        rdx,rcx
  0000000010003BC9: 48 2B CA           sub         rcx,rdx
  0000000010003BCC: 0F 80 05 00 00 00  jo          0000000010003BD7
  0000000010003BD2: E9 08 00 00 00     jmp         0000000010003BDF
  0000000010003BD7: B0 06              mov         al,6
  0000000010003BD9: B9 CF 15 00 00     mov         ecx,15CFh
  0000000010003BDE: CC                 int         3
  0000000010003BDF: BA 0A 00 00 00     mov         edx,0Ah
  0000000010003BE4: 4C 8B C0           mov         r8,rax
  0000000010003BE7: 4C 8B CA           mov         r9,rdx
  0000000010003BEA: 48 8B C1           mov         rax,rcx
  0000000010003BED: 48 99              cqo
  0000000010003BEF: 48 85 C0           test        rax,rax
  0000000010003BF2: 0F 88 08 00 00 00  js          0000000010003C00
  0000000010003BF8: 49 F7 F9           idiv        rax,r9
  0000000010003BFB: E9 10 00 00 00     jmp         0000000010003C10
  0000000010003C00: 49 F7 F9           idiv        rax,r9
  0000000010003C03: 48 85 D2           test        rdx,rdx
  0000000010003C06: 0F 84 04 00 00 00  je          0000000010003C10
  0000000010003C0C: 48 83 E8 01        sub         rax,1
  0000000010003C10: 48 8B C8           mov         rcx,rax
  0000000010003C13: 49 8B C0           mov         rax,r8
  0000000010003C16: 48 3B C1           cmp         rax,rcx
  0000000010003C19: 0F 8F 66 00 00 00  jg          0000000010003C85
  0000000010003C1F: 48 8B 45 F0        mov         rax,qword ptr [rbp-10h]
  0000000010003C23: 48 69 C0 0A 00 00  imul        rax,rax,0Ah
                    00
  0000000010003C2A: 0F 80 05 00 00 00  jo          0000000010003C35
  0000000010003C30: E9 08 00 00 00     jmp         0000000010003C3D
  0000000010003C35: B0 06              mov         al,6
  0000000010003C37: B9 EA 15 00 00     mov         ecx,15EAh
  0000000010003C3C: CC                 int         3
  0000000010003C3D: 48 8B 4D F8        mov         rcx,qword ptr [rbp-8]
  0000000010003C41: 48 83 F9 15        cmp         rcx,15h
  0000000010003C45: 0F 83 05 00 00 00  jae         0000000010003C50
  0000000010003C4B: E9 08 00 00 00     jmp         0000000010003C58
  0000000010003C50: B0 01              mov         al,1
  0000000010003C52: B9 EF 15 00 00     mov         ecx,15EFh
  0000000010003C57: CC                 int         3
  0000000010003C58: 48 C1 E1 03        shl         rcx,3
  0000000010003C5C: 48 03 CD           add         rcx,rbp
  0000000010003C5F: 48 8B 89 20 FF FF  mov         rcx,qword ptr [rcx+FFFFFFFFFFFFFF20h]
                    FF
  0000000010003C66: 48 03 C1           add         rax,rcx
  0000000010003C69: 0F 80 05 00 00 00  jo          0000000010003C74
  0000000010003C6F: E9 08 00 00 00     jmp         0000000010003C7C
  0000000010003C74: B0 06              mov         al,6
  0000000010003C76: B9 FA 15 00 00     mov         ecx,15FAh
  0000000010003C7B: CC                 int         3
  0000000010003C7C: 48 89 45 F0        mov         qword ptr [rbp-10h],rax
  0000000010003C80: E9 1F 00 00 00     jmp         0000000010003CA4
  0000000010003C85: 48 83 EC 20        sub         rsp,20h
  0000000010003C89: 48 8D 0D 5C DB FF  lea         rcx,[00000000100017ECh]
                    FF
  0000000010003C90: BA 0A 00 00 00     mov         edx,0Ah
  0000000010003C95: E8 88 F3 FF FF     call        0000000010003022
  0000000010003C9A: 48 83 C4 20        add         rsp,20h
  0000000010003C9E: 31 C0              xor         eax,eax
  0000000010003CA0: 48 89 45 F0        mov         qword ptr [rbp-10h],rax
  0000000010003CA4: E9 19 00 00 00     jmp         0000000010003CC2
  0000000010003CA9: 48 83 EC 20        sub         rsp,20h
  0000000010003CAD: 48 8D 0D 20 DB FF  lea         rcx,[00000000100017D4h]
                    FF
  0000000010003CB4: BA 0C 00 00 00     mov         edx,0Ch
  0000000010003CB9: E8 64 F3 FF FF     call        0000000010003022
  0000000010003CBE: 48 83 C4 20        add         rsp,20h
  0000000010003CC2: 48 83 45 F8 01     add         qword ptr [rbp-8],1
  0000000010003CC7: 48 8B 45 F8        mov         rax,qword ptr [rbp-8]
  0000000010003CCB: 48 8B 4D E0        mov         rcx,qword ptr [rbp-20h]
  0000000010003CCF: 48 3B C1           cmp         rax,rcx
  0000000010003CD2: 0F 85 84 FE FF FF  jne         0000000010003B5C
  0000000010003CD8: B8 15 00 00 00     mov         eax,15h
  0000000010003CDD: 48 8B 4D 10        mov         rcx,qword ptr [rbp+10h]
  0000000010003CE1: 48 89 01           mov         qword ptr [rcx],rax
  0000000010003CE4: 48 8B 45 F0        mov         rax,qword ptr [rbp-10h]
  0000000010003CE8: 48 89 05 09 F3 FF  mov         qword ptr [0000000010002FF8h],rax
                    FF
  0000000010003CEF: E9 9E 03 00 00     jmp         0000000010004092
  0000000010003CF4: B8 00 00 C0 FF     mov         eax,0FFC00000h
  0000000010003CF9: 66 0F 6E C0        movd        xmm0,eax
  0000000010003CFD: F3 0F 11 45 CC     movss       dword ptr [rbp-34h],xmm0
  0000000010003D02: 31 C0              xor         eax,eax
  0000000010003D04: 48 89 45 E8        mov         qword ptr [rbp-18h],rax
  0000000010003D08: F3 0F 10 45 CC     movss       xmm0,dword ptr [rbp-34h]
  0000000010003D0D: B8 00 00 C0 FF     mov         eax,0FFC00000h
  0000000010003D12: 66 0F 6E C8        movd        xmm1,eax
  0000000010003D16: F3 0F 59 C1        mulss       xmm0,xmm1
  0000000010003D1A: 48 8B 45 F8        mov         rax,qword ptr [rbp-8]
  0000000010003D1E: 48 83 F8 15        cmp         rax,15h
  0000000010003D22: 0F 83 05 00 00 00  jae         0000000010003D2D
  0000000010003D28: E9 08 00 00 00     jmp         0000000010003D35
  0000000010003D2D: B0 01              mov         al,1
  0000000010003D2F: B9 E2 16 00 00     mov         ecx,16E2h
  0000000010003D34: CC                 int         3
  0000000010003D35: 48 C1 E0 03        shl         rax,3
  0000000010003D39: 48 03 C5           add         rax,rbp
  0000000010003D3C: 48 8B 80 20 FF FF  mov         rax,qword ptr [rax+FFFFFFFFFFFFFF20h]
                    FF
  0000000010003D43: F3 48 0F 2A C8     cvtsi2ss    xmm1,rax
  0000000010003D48: F3 0F 58 C1        addss       xmm0,xmm1
  0000000010003D4C: F3 0F 11 45 CC     movss       dword ptr [rbp-34h],xmm0
  0000000010003D51: 48 83 45 F8 01     add         qword ptr [rbp-8],1
  0000000010003D56: 48 8B 45 F8        mov         rax,qword ptr [rbp-8]
  0000000010003D5A: 48 8B 4D E0        mov         rcx,qword ptr [rbp-20h]
  0000000010003D5E: 48 3B C1           cmp         rax,rcx
  0000000010003D61: 0F 85 A1 FF FF FF  jne         0000000010003D08
  0000000010003D67: 0F B7 05 F0 EF FF  movzx       eax,word ptr [0000000010002D5Eh]
                    FF
  0000000010003D6E: 48 83 F8 30        cmp         rax,30h
  0000000010003D72: 0F 82 66 00 00 00  jb          0000000010003DDE
  0000000010003D78: 0F B7 05 DF EF FF  movzx       eax,word ptr [0000000010002D5Eh]
                    FF
  0000000010003D7F: 48 83 F8 39        cmp         rax,39h
  0000000010003D83: 0F 87 55 00 00 00  ja          0000000010003DDE
  0000000010003D89: F3 0F 10 45 CC     movss       xmm0,dword ptr [rbp-34h]
  0000000010003D8E: B8 00 00 C0 FF     mov         eax,0FFC00000h
  0000000010003D93: 66 0F 6E C8        movd        xmm1,eax
  0000000010003D97: F3 0F 59 C1        mulss       xmm0,xmm1
  0000000010003D9B: 0F B7 05 BC EF FF  movzx       eax,word ptr [0000000010002D5Eh]
                    FF
  0000000010003DA2: 48 83 E8 30        sub         rax,30h
  0000000010003DA6: 0F 80 05 00 00 00  jo          0000000010003DB1
  0000000010003DAC: E9 08 00 00 00     jmp         0000000010003DB9
  0000000010003DB1: B0 06              mov         al,6
  0000000010003DB3: B9 5A 17 00 00     mov         ecx,175Ah
  0000000010003DB8: CC                 int         3
  0000000010003DB9: F3 48 0F 2A C8     cvtsi2ss    xmm1,rax
  0000000010003DBE: F3 0F 58 C1        addss       xmm0,xmm1
  0000000010003DC2: F3 0F 11 45 CC     movss       dword ptr [rbp-34h],xmm0
  0000000010003DC7: 48 83 45 E8 FF     add         qword ptr [rbp-18h],0FFFFFFFFFFFFFFFFh
  0000000010003DCC: 48 83 EC 20        sub         rsp,20h
  0000000010003DD0: E8 29 F3 FF FF     call        00000000100030FE
  0000000010003DD5: 48 83 C4 20        add         rsp,20h
  0000000010003DD9: E9 89 FF FF FF     jmp         0000000010003D67
  0000000010003DDE: 0F B7 05 79 EF FF  movzx       eax,word ptr [0000000010002D5Eh]
                    FF
  0000000010003DE5: 48 83 F8 45        cmp         rax,45h
  0000000010003DE9: 0F 84 11 00 00 00  je          0000000010003E00
  0000000010003DEF: 0F B7 05 68 EF FF  movzx       eax,word ptr [0000000010002D5Eh]
                    FF
  0000000010003DF6: 48 83 F8 44        cmp         rax,44h
  0000000010003DFA: 0F 85 84 01 00 00  jne         0000000010003F84
  0000000010003E00: 48 83 EC 20        sub         rsp,20h
  0000000010003E04: E8 F5 F2 FF FF     call        00000000100030FE
  0000000010003E09: 48 83 C4 20        add         rsp,20h
  0000000010003E0D: 31 C0              xor         eax,eax
  0000000010003E0F: 48 89 45 D8        mov         qword ptr [rbp-28h],rax
  0000000010003E13: 0F B7 05 44 EF FF  movzx       eax,word ptr [0000000010002D5Eh]
                    FF
  0000000010003E1A: 48 83 F8 2D        cmp         rax,2Dh
  0000000010003E1E: 0F 85 1D 00 00 00  jne         0000000010003E41
  0000000010003E24: B8 01 00 00 00     mov         eax,1
  0000000010003E29: 88 85 1F FF FF FF  mov         byte ptr [rbp+FFFFFFFFFFFFFF1Fh],al
  0000000010003E2F: 48 83 EC 20        sub         rsp,20h
  0000000010003E33: E8 C6 F2 FF FF     call        00000000100030FE
  0000000010003E38: 48 83 C4 20        add         rsp,20h
  0000000010003E3C: E9 26 00 00 00     jmp         0000000010003E67
  0000000010003E41: 31 C0              xor         eax,eax
  0000000010003E43: 88 85 1F FF FF FF  mov         byte ptr [rbp+FFFFFFFFFFFFFF1Fh],al
  0000000010003E49: 0F B7 05 0E EF FF  movzx       eax,word ptr [0000000010002D5Eh]
                    FF
  0000000010003E50: 48 83 F8 2B        cmp         rax,2Bh
  0000000010003E54: 0F 85 0D 00 00 00  jne         0000000010003E67
  0000000010003E5A: 48 83 EC 20        sub         rsp,20h
  0000000010003E5E: E8 9B F2 FF FF     call        00000000100030FE
  0000000010003E63: 48 83 C4 20        add         rsp,20h
  0000000010003E67: 0F B7 05 F0 EE FF  movzx       eax,word ptr [0000000010002D5Eh]
                    FF
  0000000010003E6E: 48 83 F8 30        cmp         rax,30h
  0000000010003E72: 0F 82 F3 00 00 00  jb          0000000010003F6B
  0000000010003E78: 0F B7 05 DF EE FF  movzx       eax,word ptr [0000000010002D5Eh]
                    FF
  0000000010003E7F: 48 83 F8 39        cmp         rax,39h
  0000000010003E83: 0F 87 E2 00 00 00  ja          0000000010003F6B
  0000000010003E89: 48 8B 45 D8        mov         rax,qword ptr [rbp-28h]
  0000000010003E8D: 48 69 C0 0A 00 00  imul        rax,rax,0Ah
                    00
  0000000010003E94: 0F 80 05 00 00 00  jo          0000000010003E9F
  0000000010003E9A: E9 08 00 00 00     jmp         0000000010003EA7
  0000000010003E9F: B0 06              mov         al,6
  0000000010003EA1: B9 63 18 00 00     mov         ecx,1863h
  0000000010003EA6: CC                 int         3
  0000000010003EA7: 0F B7 0D B0 EE FF  movzx       ecx,word ptr [0000000010002D5Eh]
                    FF
  0000000010003EAE: 48 03 C1           add         rax,rcx
  0000000010003EB1: 0F 80 05 00 00 00  jo          0000000010003EBC
  0000000010003EB7: E9 08 00 00 00     jmp         0000000010003EC4
  0000000010003EBC: B0 06              mov         al,6
  0000000010003EBE: B9 6C 18 00 00     mov         ecx,186Ch
  0000000010003EC3: CC                 int         3
  0000000010003EC4: 48 83 E8 30        sub         rax,30h
  0000000010003EC8: 0F 80 05 00 00 00  jo          0000000010003ED3
  0000000010003ECE: E9 08 00 00 00     jmp         0000000010003EDB
  0000000010003ED3: B0 06              mov         al,6
  0000000010003ED5: B9 70 18 00 00     mov         ecx,1870h
  0000000010003EDA: CC                 int         3
  0000000010003EDB: 48 89 45 D8        mov         qword ptr [rbp-28h],rax
  0000000010003EDF: 48 83 EC 20        sub         rsp,20h
  0000000010003EE3: E8 16 F2 FF FF     call        00000000100030FE
  0000000010003EE8: 48 83 C4 20        add         rsp,20h
  0000000010003EEC: 0F B7 05 6B EE FF  movzx       eax,word ptr [0000000010002D5Eh]
                    FF
  0000000010003EF3: 48 83 F8 30        cmp         rax,30h
  0000000010003EF7: 0F 82 11 00 00 00  jb          0000000010003F0E
  0000000010003EFD: 0F B7 05 5A EE FF  movzx       eax,word ptr [0000000010002D5Eh]
                    FF
  0000000010003F04: 48 83 F8 39        cmp         rax,39h
  0000000010003F08: 0F 86 7B FF FF FF  jbe         0000000010003E89
  0000000010003F0E: 0F B6 85 1F FF FF  movzx       eax,byte ptr [rbp+FFFFFFFFFFFFFF1Fh]
                    FF
  0000000010003F15: 85 C0              test        eax,eax
  0000000010003F17: 0F 84 27 00 00 00  je          0000000010003F44
  0000000010003F1D: 48 8B 45 E8        mov         rax,qword ptr [rbp-18h]
  0000000010003F21: 48 8B 4D D8        mov         rcx,qword ptr [rbp-28h]
  0000000010003F25: 48 2B C1           sub         rax,rcx
  0000000010003F28: 0F 80 05 00 00 00  jo          0000000010003F33
  0000000010003F2E: E9 08 00 00 00     jmp         0000000010003F3B
  0000000010003F33: B0 06              mov         al,6
  0000000010003F35: B9 BC 18 00 00     mov         ecx,18BCh
  0000000010003F3A: CC                 int         3
  0000000010003F3B: 48 89 45 E8        mov         qword ptr [rbp-18h],rax
  0000000010003F3F: E9 22 00 00 00     jmp         0000000010003F66
  0000000010003F44: 48 8B 45 E8        mov         rax,qword ptr [rbp-18h]
  0000000010003F48: 48 8B 4D D8        mov         rcx,qword ptr [rbp-28h]
  0000000010003F4C: 48 03 C1           add         rax,rcx
  0000000010003F4F: 0F 80 05 00 00 00  jo          0000000010003F5A
  0000000010003F55: E9 08 00 00 00     jmp         0000000010003F62
  0000000010003F5A: B0 06              mov         al,6
  0000000010003F5C: B9 CF 18 00 00     mov         ecx,18CFh
  0000000010003F61: CC                 int         3
  0000000010003F62: 48 89 45 E8        mov         qword ptr [rbp-18h],rax
  0000000010003F66: E9 19 00 00 00     jmp         0000000010003F84
  0000000010003F6B: 48 83 EC 20        sub         rsp,20h
  0000000010003F6F: 48 8D 0D 28 D8 FF  lea         rcx,[000000001000179Eh]
                    FF
  0000000010003F76: BA 07 00 00 00     mov         edx,7
  0000000010003F7B: E8 A2 F0 FF FF     call        0000000010003022
  0000000010003F80: 48 83 C4 20        add         rsp,20h
  0000000010003F84: 48 8B 45 E8        mov         rax,qword ptr [rbp-18h]
  0000000010003F88: 48 85 C0           test        rax,rax
  0000000010003F8B: 0F 8D 71 00 00 00  jge         0000000010004002
  0000000010003F91: 48 8B 45 E8        mov         rax,qword ptr [rbp-18h]
  0000000010003F95: 48 83 F8 DA        cmp         rax,0FFFFFFFFFFFFFFDAh
  0000000010003F99: 0F 8C 50 00 00 00  jl          0000000010003FEF
  0000000010003F9F: F3 0F 10 45 CC     movss       xmm0,dword ptr [rbp-34h]
  0000000010003FA4: 48 83 EC 08        sub         rsp,8
  0000000010003FA8: F3 0F 11 04 24     movss       dword ptr [rsp],xmm0
  0000000010003FAD: 48 83 EC 28        sub         rsp,28h
  0000000010003FB1: 48 8B 4D E8        mov         rcx,qword ptr [rbp-18h]
  0000000010003FB5: 48 F7 D9           neg         rcx
  0000000010003FB8: 0F 80 05 00 00 00  jo          0000000010003FC3
  0000000010003FBE: E9 08 00 00 00     jmp         0000000010003FCB
  0000000010003FC3: B0 06              mov         al,6
  0000000010003FC5: B9 37 19 00 00     mov         ecx,1937h
  0000000010003FCA: CC                 int         3
  0000000010003FCB: E8 3B F8 FF FF     call        000000001000380B
  0000000010003FD0: 48 83 C4 28        add         rsp,28h
  0000000010003FD4: F3 0F 10 C8        movss       xmm1,xmm0
  0000000010003FD8: F3 0F 10 04 24     movss       xmm0,dword ptr [rsp]
  0000000010003FDD: 48 83 C4 08        add         rsp,8
  0000000010003FE1: F3 0F 5E C1        divss       xmm0,xmm1
  0000000010003FE5: F3 0F 11 45 CC     movss       dword ptr [rbp-34h],xmm0
  0000000010003FEA: E9 0E 00 00 00     jmp         0000000010003FFD
  0000000010003FEF: B8 00 00 C0 FF     mov         eax,0FFC00000h
  0000000010003FF4: 66 0F 6E C0        movd        xmm0,eax
  0000000010003FF8: F3 0F 11 45 CC     movss       dword ptr [rbp-34h],xmm0
  0000000010003FFD: E9 66 00 00 00     jmp         0000000010004068
  0000000010004002: 48 8B 45 E8        mov         rax,qword ptr [rbp-18h]
  0000000010004006: 48 85 C0           test        rax,rax
  0000000010004009: 0F 8E 59 00 00 00  jle         0000000010004068
  000000001000400F: 48 8B 45 E8        mov         rax,qword ptr [rbp-18h]
  0000000010004013: 48 83 F8 26        cmp         rax,26h
  0000000010004017: 0F 8F 24 00 00 00  jg          0000000010004041
  000000001000401D: 48 83 EC 20        sub         rsp,20h
  0000000010004021: 48 8B 4D E8        mov         rcx,qword ptr [rbp-18h]
  0000000010004025: E8 E1 F7 FF FF     call        000000001000380B
  000000001000402A: 48 83 C4 20        add         rsp,20h
  000000001000402E: F3 0F 10 4D CC     movss       xmm1,dword ptr [rbp-34h]
  0000000010004033: F3 0F 59 C1        mulss       xmm0,xmm1
  0000000010004037: F3 0F 11 45 CC     movss       dword ptr [rbp-34h],xmm0
  000000001000403C: E9 27 00 00 00     jmp         0000000010004068
  0000000010004041: B8 00 00 C0 FF     mov         eax,0FFC00000h
  0000000010004046: 66 0F 6E C0        movd        xmm0,eax
  000000001000404A: F3 0F 11 45 CC     movss       dword ptr [rbp-34h],xmm0
  000000001000404F: 48 83 EC 20        sub         rsp,20h
  0000000010004053: 48 8D 0D 30 D7 FF  lea         rcx,[000000001000178Ah]
                    FF
  000000001000405A: BA 0A 00 00 00     mov         edx,0Ah
  000000001000405F: E8 BE EF FF FF     call        0000000010003022
  0000000010004064: 48 83 C4 20        add         rsp,20h
  0000000010004068: B8 16 00 00 00     mov         eax,16h
  000000001000406D: 48 8B 4D 10        mov         rcx,qword ptr [rbp+10h]
  0000000010004071: 48 89 01           mov         qword ptr [rcx],rax
  0000000010004074: F3 0F 10 45 CC     movss       xmm0,dword ptr [rbp-34h]
  0000000010004079: F3 0F 11 05 6B EF  movss       dword ptr [0000000010002FECh],xmm0
                    FF FF
  0000000010004081: F3 0F 10 45 CC     movss       xmm0,dword ptr [rbp-34h]
  0000000010004086: 66 48 0F 7E C0     movd        rax,xmm0
  000000001000408B: 48 89 05 66 EF FF  mov         qword ptr [0000000010002FF8h],rax
                    FF
  0000000010004092: E9 B7 01 00 00     jmp         000000001000424E
  0000000010004097: 48 8B 45 F8        mov         rax,qword ptr [rbp-8]
  000000001000409B: 48 83 F8 15        cmp         rax,15h
  000000001000409F: 0F 83 05 00 00 00  jae         00000000100040AA
  00000000100040A5: E9 08 00 00 00     jmp         00000000100040B2
  00000000100040AA: B0 01              mov         al,1
  00000000100040AC: B9 38 1A 00 00     mov         ecx,1A38h
  00000000100040B1: CC                 int         3
  00000000100040B2: 48 C1 E0 03        shl         rax,3
  00000000100040B6: 48 03 C5           add         rax,rbp
  00000000100040B9: 48 8B 80 20 FF FF  mov         rax,qword ptr [rax+FFFFFFFFFFFFFF20h]
                    FF
  00000000100040C0: 48 83 F8 0A        cmp         rax,0Ah
  00000000100040C4: 0F 8D 2C 01 00 00  jge         00000000100041F6
  00000000100040CA: 48 8B 45 F0        mov         rax,qword ptr [rbp-10h]
  00000000100040CE: 48 8B 4D F8        mov         rcx,qword ptr [rbp-8]
  00000000100040D2: 48 83 F9 15        cmp         rcx,15h
  00000000100040D6: 0F 83 05 00 00 00  jae         00000000100040E1
  00000000100040DC: E9 08 00 00 00     jmp         00000000100040E9
  00000000100040E1: B0 01              mov         al,1
  00000000100040E3: B9 5A 1A 00 00     mov         ecx,1A5Ah
  00000000100040E8: CC                 int         3
  00000000100040E9: 48 C1 E1 03        shl         rcx,3
  00000000100040ED: 48 03 CD           add         rcx,rbp
  00000000100040F0: 48 BA FF FF FF FF  mov         rdx,7FFFFFFFFFFFFFFFh
                    FF FF FF 7F
  00000000100040FA: 48 8B 89 20 FF FF  mov         rcx,qword ptr [rcx+FFFFFFFFFFFFFF20h]
                    FF
  0000000010004101: 48 87 D1           xchg        rdx,rcx
  0000000010004104: 48 2B CA           sub         rcx,rdx
  0000000010004107: 0F 80 05 00 00 00  jo          0000000010004112
  000000001000410D: E9 08 00 00 00     jmp         000000001000411A
  0000000010004112: B0 06              mov         al,6
  0000000010004114: B9 5B 1A 00 00     mov         ecx,1A5Bh
  0000000010004119: CC                 int         3
  000000001000411A: BA 0A 00 00 00     mov         edx,0Ah
  000000001000411F: 4C 8B C0           mov         r8,rax
  0000000010004122: 4C 8B CA           mov         r9,rdx
  0000000010004125: 48 8B C1           mov         rax,rcx
  0000000010004128: 48 99              cqo
  000000001000412A: 48 85 C0           test        rax,rax
  000000001000412D: 0F 88 08 00 00 00  js          000000001000413B
  0000000010004133: 49 F7 F9           idiv        rax,r9
  0000000010004136: E9 10 00 00 00     jmp         000000001000414B
  000000001000413B: 49 F7 F9           idiv        rax,r9
  000000001000413E: 48 85 D2           test        rdx,rdx
  0000000010004141: 0F 84 04 00 00 00  je          000000001000414B
  0000000010004147: 48 83 E8 01        sub         rax,1
  000000001000414B: 48 8B C8           mov         rcx,rax
  000000001000414E: 49 8B C0           mov         rax,r8
  0000000010004151: 48 3B C1           cmp         rax,rcx
  0000000010004154: 0F 8F 66 00 00 00  jg          00000000100041C0
  000000001000415A: 48 8B 45 F0        mov         rax,qword ptr [rbp-10h]
  000000001000415E: 48 69 C0 0A 00 00  imul        rax,rax,0Ah
                    00
  0000000010004165: 0F 80 05 00 00 00  jo          0000000010004170
  000000001000416B: E9 08 00 00 00     jmp         0000000010004178
  0000000010004170: B0 06              mov         al,6
  0000000010004172: B9 75 1A 00 00     mov         ecx,1A75h
  0000000010004177: CC                 int         3
  0000000010004178: 48 8B 4D F8        mov         rcx,qword ptr [rbp-8]
  000000001000417C: 48 83 F9 15        cmp         rcx,15h
  0000000010004180: 0F 83 05 00 00 00  jae         000000001000418B
  0000000010004186: E9 08 00 00 00     jmp         0000000010004193
  000000001000418B: B0 01              mov         al,1
  000000001000418D: B9 7A 1A 00 00     mov         ecx,1A7Ah
  0000000010004192: CC                 int         3
  0000000010004193: 48 C1 E1 03        shl         rcx,3
  0000000010004197: 48 03 CD           add         rcx,rbp
  000000001000419A: 48 8B 89 20 FF FF  mov         rcx,qword ptr [rcx+FFFFFFFFFFFFFF20h]
                    FF
  00000000100041A1: 48 03 C1           add         rax,rcx
  00000000100041A4: 0F 80 05 00 00 00  jo          00000000100041AF
  00000000100041AA: E9 08 00 00 00     jmp         00000000100041B7
  00000000100041AF: B0 06              mov         al,6
  00000000100041B1: B9 84 1A 00 00     mov         ecx,1A84h
  00000000100041B6: CC                 int         3
  00000000100041B7: 48 89 45 F0        mov         qword ptr [rbp-10h],rax
  00000000100041BB: E9 31 00 00 00     jmp         00000000100041F1
  00000000100041C0: 48 83 EC 08        sub         rsp,8
  00000000100041C4: F3 0F 11 04 24     movss       dword ptr [rsp],xmm0
  00000000100041C9: 48 83 EC 28        sub         rsp,28h
  00000000100041CD: 48 8D 0D A2 D5 FF  lea         rcx,[0000000010001776h]
                    FF
  00000000100041D4: BA 0A 00 00 00     mov         edx,0Ah
  00000000100041D9: E8 44 EE FF FF     call        0000000010003022
  00000000100041DE: 48 83 C4 28        add         rsp,28h
  00000000100041E2: F3 0F 10 04 24     movss       xmm0,dword ptr [rsp]
  00000000100041E7: 48 83 C4 08        add         rsp,8
  00000000100041EB: 31 C0              xor         eax,eax
  00000000100041ED: 48 89 45 F0        mov         qword ptr [rbp-10h],rax
  00000000100041F1: E9 2B 00 00 00     jmp         0000000010004221
  00000000100041F6: 48 83 EC 08        sub         rsp,8
  00000000100041FA: F3 0F 11 04 24     movss       dword ptr [rsp],xmm0
  00000000100041FF: 48 83 EC 28        sub         rsp,28h
  0000000010004203: 48 8D 0D 54 D5 FF  lea         rcx,[000000001000175Eh]
                    FF
  000000001000420A: BA 0C 00 00 00     mov         edx,0Ch
  000000001000420F: E8 0E EE FF FF     call        0000000010003022
  0000000010004214: 48 83 C4 28        add         rsp,28h
  0000000010004218: F3 0F 10 04 24     movss       xmm0,dword ptr [rsp]
  000000001000421D: 48 83 C4 08        add         rsp,8
  0000000010004221: 48 83 45 F8 01     add         qword ptr [rbp-8],1
  0000000010004226: 48 8B 45 F8        mov         rax,qword ptr [rbp-8]
  000000001000422A: 48 8B 4D E0        mov         rcx,qword ptr [rbp-20h]
  000000001000422E: 48 3B C1           cmp         rax,rcx
  0000000010004231: 0F 85 60 FE FF FF  jne         0000000010004097
  0000000010004237: B8 15 00 00 00     mov         eax,15h
  000000001000423C: 48 8B 4D 10        mov         rcx,qword ptr [rbp+10h]
  0000000010004240: 48 89 01           mov         qword ptr [rcx],rax
  0000000010004243: 48 8B 45 F0        mov         rax,qword ptr [rbp-10h]
  0000000010004247: 48 89 05 AA ED FF  mov         qword ptr [0000000010002FF8h],rax
                    FF
  000000001000424E: C9                 leave
  000000001000424F: C3                 ret
  0000000010004250: E9 71 13 00 00     jmp         00000000100055C6
  0000000010004255: 55                 push        rbp
  0000000010004256: 48 8B EC           mov         rbp,rsp
  0000000010004259: 48 81 EC 10 02 00  sub         rsp,210h
                    00
  0000000010004260: 48 83 EC 20        sub         rsp,20h
  0000000010004264: E8 95 EE FF FF     call        00000000100030FE
  0000000010004269: 48 83 C4 20        add         rsp,20h
  000000001000426D: 31 C0              xor         eax,eax
  000000001000426F: 48 89 85 F8 FD FF  mov         qword ptr [rbp+FFFFFFFFFFFFFDF8h],rax
                    FF
  0000000010004276: 48 8B 85 F8 FD FF  mov         rax,qword ptr [rbp+FFFFFFFFFFFFFDF8h]
                    FF
  000000001000427D: 48 81 F8 FF 00 00  cmp         rax,0FFh
                    00
  0000000010004284: 0F 8D 70 00 00 00  jge         00000000100042FA
  000000001000428A: 0F B7 05 CD EA FF  movzx       eax,word ptr [0000000010002D5Eh]
                    FF
  0000000010004291: 48 83 F8 2A        cmp         rax,2Ah
  0000000010004295: 0F 84 5F 00 00 00  je          00000000100042FA
  000000001000429B: 0F B6 05 BB EA FF  movzx       eax,byte ptr [0000000010002D5Dh]
                    FF
  00000000100042A2: 85 C0              test        eax,eax
  00000000100042A4: 0F 85 50 00 00 00  jne         00000000100042FA
  00000000100042AA: 48 8B 85 F8 FD FF  mov         rax,qword ptr [rbp+FFFFFFFFFFFFFDF8h]
                    FF
  00000000100042B1: 48 81 F8 00 01 00  cmp         rax,100h
                    00
  00000000100042B8: 0F 83 05 00 00 00  jae         00000000100042C3
  00000000100042BE: E9 08 00 00 00     jmp         00000000100042CB
  00000000100042C3: B0 01              mov         al,1
  00000000100042C5: B9 F9 1B 00 00     mov         ecx,1BF9h
  00000000100042CA: CC                 int         3
  00000000100042CB: 48 C1 E0 01        shl         rax,1
  00000000100042CF: 48 03 C5           add         rax,rbp
  00000000100042D2: 0F B7 0D 85 EA FF  movzx       ecx,word ptr [0000000010002D5Eh]
                    FF
  00000000100042D9: 66 89 88 00 FE FF  mov         word ptr [rax+FFFFFFFFFFFFFE00h],cx
                    FF
  00000000100042E0: 48 83 EC 20        sub         rsp,20h
  00000000100042E4: E8 15 EE FF FF     call        00000000100030FE
  00000000100042E9: 48 83 C4 20        add         rsp,20h
  00000000100042ED: 48 83 85 F8 FD FF  add         qword ptr [rbp+FFFFFFFFFFFFFDF8h],1
                    FF 01
  00000000100042F5: E9 7C FF FF FF     jmp         0000000010004276
  00000000100042FA: 48 8B 85 F8 FD FF  mov         rax,qword ptr [rbp+FFFFFFFFFFFFFDF8h]
                    FF
  0000000010004301: 48 81 F8 00 01 00  cmp         rax,100h
                    00
  0000000010004308: 0F 83 05 00 00 00  jae         0000000010004313
  000000001000430E: E9 08 00 00 00     jmp         000000001000431B
  0000000010004313: B0 01              mov         al,1
  0000000010004315: B9 23 1C 00 00     mov         ecx,1C23h
  000000001000431A: CC                 int         3
  000000001000431B: 48 C1 E0 01        shl         rax,1
  000000001000431F: 48 03 C5           add         rax,rbp
  0000000010004322: 31 C9              xor         ecx,ecx
  0000000010004324: 66 89 88 00 FE FF  mov         word ptr [rax+FFFFFFFFFFFFFE00h],cx
                    FF
  000000001000432B: 0F B7 05 2C EA FF  movzx       eax,word ptr [0000000010002D5Eh]
                    FF
  0000000010004332: 48 83 F8 2A        cmp         rax,2Ah
  0000000010004336: 0F 85 1F 00 00 00  jne         000000001000435B
  000000001000433C: 48 83 EC 20        sub         rsp,20h
  0000000010004340: 48 8D 8D 00 FE FF  lea         rcx,[rbp+FFFFFFFFFFFFFE00h]
                    FF
  0000000010004347: BA 00 01 00 00     mov         edx,100h
  000000001000434C: FF 15 F6 D3 FF FF  call        qword ptr [0000000010001748h]
  0000000010004352: 48 83 C4 20        add         rsp,20h
  0000000010004356: E9 19 00 00 00     jmp         0000000010004374
  000000001000435B: 48 83 EC 20        sub         rsp,20h
  000000001000435F: 48 8D 0D B0 D3 FF  lea         rcx,[0000000010001716h]
                    FF
  0000000010004366: BA 19 00 00 00     mov         edx,19h
  000000001000436B: E8 B2 EC FF FF     call        0000000010003022
  0000000010004370: 48 83 C4 20        add         rsp,20h
  0000000010004374: C9                 leave
  0000000010004375: C3                 ret
  0000000010004376: 55                 push        rbp
  0000000010004377: 48 8B EC           mov         rbp,rsp
  000000001000437A: 48 83 EC 10        sub         rsp,10h
  000000001000437E: 48 89 4D 10        mov         qword ptr [rbp+10h],rcx
  0000000010004382: 0F B7 05 D5 E9 FF  movzx       eax,word ptr [0000000010002D5Eh]
                    FF
  0000000010004389: 48 83 F8 24        cmp         rax,24h
  000000001000438D: 0F 85 1A 00 00 00  jne         00000000100043AD
  0000000010004393: 48 8B 45 10        mov         rax,qword ptr [rbp+10h]
  0000000010004397: 48 85 C0           test        rax,rax
  000000001000439A: 0F 85 0D 00 00 00  jne         00000000100043AD
  00000000100043A0: 48 83 EC 20        sub         rsp,20h
  00000000100043A4: E8 AC FE FF FF     call        0000000010004255
  00000000100043A9: 48 83 C4 20        add         rsp,20h
  00000000100043AD: 31 C0              xor         eax,eax
  00000000100043AF: 88 45 FF           mov         byte ptr [rbp-1],al
  00000000100043B2: 0F B6 05 A4 E9 FF  movzx       eax,byte ptr [0000000010002D5Dh]
                    FF
  00000000100043B9: 85 C0              test        eax,eax
  00000000100043BB: 0F 85 D0 00 00 00  jne         0000000010004491
  00000000100043C1: 0F B6 45 FF        movzx       eax,byte ptr [rbp-1]
  00000000100043C5: 85 C0              test        eax,eax
  00000000100043C7: 0F 85 C4 00 00 00  jne         0000000010004491
  00000000100043CD: 0F B7 05 8A E9 FF  movzx       eax,word ptr [0000000010002D5Eh]
                    FF
  00000000100043D4: 48 83 F8 28        cmp         rax,28h
  00000000100043D8: 0F 85 58 00 00 00  jne         0000000010004436
  00000000100043DE: 48 83 EC 20        sub         rsp,20h
  00000000100043E2: E8 17 ED FF FF     call        00000000100030FE
  00000000100043E7: 48 83 C4 20        add         rsp,20h
  00000000100043EB: 0F B7 05 6C E9 FF  movzx       eax,word ptr [0000000010002D5Eh]
                    FF
  00000000100043F2: 48 83 F8 2A        cmp         rax,2Ah
  00000000100043F6: 0F 85 35 00 00 00  jne         0000000010004431
  00000000100043FC: 48 83 EC 20        sub         rsp,20h
  0000000010004400: E8 F9 EC FF FF     call        00000000100030FE
  0000000010004405: 48 83 C4 20        add         rsp,20h
  0000000010004409: 48 83 EC 20        sub         rsp,20h
  000000001000440D: 48 8B 4D 10        mov         rcx,qword ptr [rbp+10h]
  0000000010004411: 48 83 C1 01        add         rcx,1
  0000000010004415: 0F 80 05 00 00 00  jo          0000000010004420
  000000001000441B: E9 08 00 00 00     jmp         0000000010004428
  0000000010004420: B0 06              mov         al,6
  0000000010004422: B9 4C 1D 00 00     mov         ecx,1D4Ch
  0000000010004427: CC                 int         3
  0000000010004428: E8 49 FF FF FF     call        0000000010004376
  000000001000442D: 48 83 C4 20        add         rsp,20h
  0000000010004431: E9 56 00 00 00     jmp         000000001000448C
  0000000010004436: 0F B7 05 21 E9 FF  movzx       eax,word ptr [0000000010002D5Eh]
                    FF
  000000001000443D: 48 83 F8 2A        cmp         rax,2Ah
  0000000010004441: 0F 85 38 00 00 00  jne         000000001000447F
  0000000010004447: 48 83 EC 20        sub         rsp,20h
  000000001000444B: E8 AE EC FF FF     call        00000000100030FE
  0000000010004450: 48 83 C4 20        add         rsp,20h
  0000000010004454: 0F B7 05 03 E9 FF  movzx       eax,word ptr [0000000010002D5Eh]
                    FF
  000000001000445B: 48 83 F8 29        cmp         rax,29h
  000000001000445F: 0F 85 15 00 00 00  jne         000000001000447A
  0000000010004465: 48 83 EC 20        sub         rsp,20h
  0000000010004469: E8 90 EC FF FF     call        00000000100030FE
  000000001000446E: 48 83 C4 20        add         rsp,20h
  0000000010004472: B8 01 00 00 00     mov         eax,1
  0000000010004477: 88 45 FF           mov         byte ptr [rbp-1],al
  000000001000447A: E9 0D 00 00 00     jmp         000000001000448C
  000000001000447F: 48 83 EC 20        sub         rsp,20h
  0000000010004483: E8 76 EC FF FF     call        00000000100030FE
  0000000010004488: 48 83 C4 20        add         rsp,20h
  000000001000448C: E9 21 FF FF FF     jmp         00000000100043B2
  0000000010004491: C9                 leave
  0000000010004492: C3                 ret
  0000000010004493: 55                 push        rbp
  0000000010004494: 48 8B EC           mov         rbp,rsp
  0000000010004497: 48 89 4D 10        mov         qword ptr [rbp+10h],rcx
  000000001000449B: 0F B6 05 BB E8 FF  movzx       eax,byte ptr [0000000010002D5Dh]
                    FF
  00000000100044A2: 85 C0              test        eax,eax
  00000000100044A4: 0F 85 23 00 00 00  jne         00000000100044CD
  00000000100044AA: 0F B7 05 AD E8 FF  movzx       eax,word ptr [0000000010002D5Eh]
                    FF
  00000000100044B1: 48 83 F8 20        cmp         rax,20h
  00000000100044B5: 0F 87 12 00 00 00  ja          00000000100044CD
  00000000100044BB: 48 83 EC 20        sub         rsp,20h
  00000000100044BF: E8 3A EC FF FF     call        00000000100030FE
  00000000100044C4: 48 83 C4 20        add         rsp,20h
  00000000100044C8: E9 CE FF FF FF     jmp         000000001000449B
  00000000100044CD: 0F B7 05 8A E8 FF  movzx       eax,word ptr [0000000010002D5Eh]
                    FF
  00000000100044D4: 48 83 F8 41        cmp         rax,41h
  00000000100044D8: 0F 83 9C 04 00 00  jae         000000001000497A
  00000000100044DE: 0F B7 05 79 E8 FF  movzx       eax,word ptr [0000000010002D5Eh]
                    FF
  00000000100044E5: 48 83 F8 30        cmp         rax,30h
  00000000100044E9: 0F 83 D1 02 00 00  jae         00000000100047C0
  00000000100044EF: 0F B7 05 68 E8 FF  movzx       eax,word ptr [0000000010002D5Eh]
                    FF
  00000000100044F6: 48 83 F8 22        cmp         rax,22h
  00000000100044FA: 0F 84 11 00 00 00  je          0000000010004511
  0000000010004500: 0F B7 05 57 E8 FF  movzx       eax,word ptr [0000000010002D5Eh]
                    FF
  0000000010004507: 48 83 F8 27        cmp         rax,27h
  000000001000450B: 0F 85 25 00 00 00  jne         0000000010004536
  0000000010004511: 48 83 EC 20        sub         rsp,20h
  0000000010004515: 0F B7 0D 42 E8 FF  movzx       ecx,word ptr [0000000010002D5Eh]
                    FF
  000000001000451C: E8 14 EF FF FF     call        0000000010003435
  0000000010004521: 48 83 C4 20        add         rsp,20h
  0000000010004525: B8 1A 00 00 00     mov         eax,1Ah
  000000001000452A: 48 8B 4D 10        mov         rcx,qword ptr [rbp+10h]
  000000001000452E: 48 89 01           mov         qword ptr [rcx],rax
  0000000010004531: E9 85 02 00 00     jmp         00000000100047BB
  0000000010004536: 0F B7 05 21 E8 FF  movzx       eax,word ptr [0000000010002D5Eh]
                    FF
  000000001000453D: 48 83 F8 23        cmp         rax,23h
  0000000010004541: 0F 85 1E 00 00 00  jne         0000000010004565
  0000000010004547: 48 83 EC 20        sub         rsp,20h
  000000001000454B: E8 AE EB FF FF     call        00000000100030FE
  0000000010004550: 48 83 C4 20        add         rsp,20h
  0000000010004554: B8 0A 00 00 00     mov         eax,0Ah
  0000000010004559: 48 8B 4D 10        mov         rcx,qword ptr [rbp+10h]
  000000001000455D: 48 89 01           mov         qword ptr [rcx],rax
  0000000010004560: E9 56 02 00 00     jmp         00000000100047BB
  0000000010004565: 0F B7 05 F2 E7 FF  movzx       eax,word ptr [0000000010002D5Eh]
                    FF
  000000001000456C: 48 83 F8 24        cmp         rax,24h
  0000000010004570: 0F 85 1E 00 00 00  jne         0000000010004594
  0000000010004576: 48 83 EC 20        sub         rsp,20h
  000000001000457A: E8 D6 EF FF FF     call        0000000010003555
  000000001000457F: 48 83 C4 20        add         rsp,20h
  0000000010004583: B8 1A 00 00 00     mov         eax,1Ah
  0000000010004588: 48 8B 4D 10        mov         rcx,qword ptr [rbp+10h]
  000000001000458C: 48 89 01           mov         qword ptr [rcx],rax
  000000001000458F: E9 27 02 00 00     jmp         00000000100047BB
  0000000010004594: 0F B7 05 C3 E7 FF  movzx       eax,word ptr [0000000010002D5Eh]
                    FF
  000000001000459B: 48 83 F8 26        cmp         rax,26h
  000000001000459F: 0F 85 1E 00 00 00  jne         00000000100045C3
  00000000100045A5: 48 83 EC 20        sub         rsp,20h
  00000000100045A9: E8 50 EB FF FF     call        00000000100030FE
  00000000100045AE: 48 83 C4 20        add         rsp,20h
  00000000100045B2: B8 05 00 00 00     mov         eax,5
  00000000100045B7: 48 8B 4D 10        mov         rcx,qword ptr [rbp+10h]
  00000000100045BB: 48 89 01           mov         qword ptr [rcx],rax
  00000000100045BE: E9 F8 01 00 00     jmp         00000000100047BB
  00000000100045C3: 0F B7 05 94 E7 FF  movzx       eax,word ptr [0000000010002D5Eh]
                    FF
  00000000100045CA: 48 83 F8 28        cmp         rax,28h
  00000000100045CE: 0F 85 59 00 00 00  jne         000000001000462D
  00000000100045D4: 48 83 EC 20        sub         rsp,20h
  00000000100045D8: E8 21 EB FF FF     call        00000000100030FE
  00000000100045DD: 48 83 C4 20        add         rsp,20h
  00000000100045E1: 0F B7 05 76 E7 FF  movzx       eax,word ptr [0000000010002D5Eh]
                    FF
  00000000100045E8: 48 83 F8 2A        cmp         rax,2Ah
  00000000100045EC: 0F 85 2A 00 00 00  jne         000000001000461C
  00000000100045F2: 31 C0              xor         eax,eax
  00000000100045F4: 48 8B 4D 10        mov         rcx,qword ptr [rbp+10h]
  00000000100045F8: 48 89 01           mov         qword ptr [rcx],rax
  00000000100045FB: 48 83 EC 20        sub         rsp,20h
  00000000100045FF: E8 FA EA FF FF     call        00000000100030FE
  0000000010004604: 48 83 C4 20        add         rsp,20h
  0000000010004608: 48 83 EC 20        sub         rsp,20h
  000000001000460C: 31 C9              xor         ecx,ecx
  000000001000460E: E8 63 FD FF FF     call        0000000010004376
  0000000010004613: 48 83 C4 20        add         rsp,20h
  0000000010004617: E9 0C 00 00 00     jmp         0000000010004628
  000000001000461C: B8 1C 00 00 00     mov         eax,1Ch
  0000000010004621: 48 8B 4D 10        mov         rcx,qword ptr [rbp+10h]
  0000000010004625: 48 89 01           mov         qword ptr [rcx],rax
  0000000010004628: E9 8E 01 00 00     jmp         00000000100047BB
  000000001000462D: 0F B7 05 2A E7 FF  movzx       eax,word ptr [0000000010002D5Eh]
                    FF
  0000000010004634: 48 83 F8 29        cmp         rax,29h
  0000000010004638: 0F 85 1E 00 00 00  jne         000000001000465C
  000000001000463E: 48 83 EC 20        sub         rsp,20h
  0000000010004642: E8 B7 EA FF FF     call        00000000100030FE
  0000000010004647: 48 83 C4 20        add         rsp,20h
  000000001000464B: B8 2C 00 00 00     mov         eax,2Ch
  0000000010004650: 48 8B 4D 10        mov         rcx,qword ptr [rbp+10h]
  0000000010004654: 48 89 01           mov         qword ptr [rcx],rax
  0000000010004657: E9 5F 01 00 00     jmp         00000000100047BB
  000000001000465C: 0F B7 05 FB E6 FF  movzx       eax,word ptr [0000000010002D5Eh]
                    FF
  0000000010004663: 48 83 F8 2A        cmp         rax,2Ah
  0000000010004667: 0F 85 1E 00 00 00  jne         000000001000468B
  000000001000466D: 48 83 EC 20        sub         rsp,20h
  0000000010004671: E8 88 EA FF FF     call        00000000100030FE
  0000000010004676: 48 83 C4 20        add         rsp,20h
  000000001000467A: B8 01 00 00 00     mov         eax,1
  000000001000467F: 48 8B 4D 10        mov         rcx,qword ptr [rbp+10h]
  0000000010004683: 48 89 01           mov         qword ptr [rcx],rax
  0000000010004686: E9 30 01 00 00     jmp         00000000100047BB
  000000001000468B: 0F B7 05 CC E6 FF  movzx       eax,word ptr [0000000010002D5Eh]
                    FF
  0000000010004692: 48 83 F8 2B        cmp         rax,2Bh
  0000000010004696: 0F 85 1E 00 00 00  jne         00000000100046BA
  000000001000469C: 48 83 EC 20        sub         rsp,20h
  00000000100046A0: E8 59 EA FF FF     call        00000000100030FE
  00000000100046A5: 48 83 C4 20        add         rsp,20h
  00000000100046A9: B8 06 00 00 00     mov         eax,6
  00000000100046AE: 48 8B 4D 10        mov         rcx,qword ptr [rbp+10h]
  00000000100046B2: 48 89 01           mov         qword ptr [rcx],rax
  00000000100046B5: E9 01 01 00 00     jmp         00000000100047BB
  00000000100046BA: 0F B7 05 9D E6 FF  movzx       eax,word ptr [0000000010002D5Eh]
                    FF
  00000000100046C1: 48 83 F8 2C        cmp         rax,2Ch
  00000000100046C5: 0F 85 1E 00 00 00  jne         00000000100046E9
  00000000100046CB: 48 83 EC 20        sub         rsp,20h
  00000000100046CF: E8 2A EA FF FF     call        00000000100030FE
  00000000100046D4: 48 83 C4 20        add         rsp,20h
  00000000100046D8: B8 28 00 00 00     mov         eax,28h
  00000000100046DD: 48 8B 4D 10        mov         rcx,qword ptr [rbp+10h]
  00000000100046E1: 48 89 01           mov         qword ptr [rcx],rax
  00000000100046E4: E9 D2 00 00 00     jmp         00000000100047BB
  00000000100046E9: 0F B7 05 6E E6 FF  movzx       eax,word ptr [0000000010002D5Eh]
                    FF
  00000000100046F0: 48 83 F8 2D        cmp         rax,2Dh
  00000000100046F4: 0F 85 1E 00 00 00  jne         0000000010004718
  00000000100046FA: 48 83 EC 20        sub         rsp,20h
  00000000100046FE: E8 FB E9 FF FF     call        00000000100030FE
  0000000010004703: 48 83 C4 20        add         rsp,20h
  0000000010004707: B8 07 00 00 00     mov         eax,7
  000000001000470C: 48 8B 4D 10        mov         rcx,qword ptr [rbp+10h]
  0000000010004710: 48 89 01           mov         qword ptr [rcx],rax
  0000000010004713: E9 A3 00 00 00     jmp         00000000100047BB
  0000000010004718: 0F B7 05 3F E6 FF  movzx       eax,word ptr [0000000010002D5Eh]
                    FF
  000000001000471F: 48 83 F8 2E        cmp         rax,2Eh
  0000000010004723: 0F 85 4D 00 00 00  jne         0000000010004776
  0000000010004729: 48 83 EC 20        sub         rsp,20h
  000000001000472D: E8 CC E9 FF FF     call        00000000100030FE
  0000000010004732: 48 83 C4 20        add         rsp,20h
  0000000010004736: 0F B7 05 21 E6 FF  movzx       eax,word ptr [0000000010002D5Eh]
                    FF
  000000001000473D: 48 83 F8 2E        cmp         rax,2Eh
  0000000010004741: 0F 85 1E 00 00 00  jne         0000000010004765
  0000000010004747: 48 83 EC 20        sub         rsp,20h
  000000001000474B: E8 AE E9 FF FF     call        00000000100030FE
  0000000010004750: 48 83 C4 20        add         rsp,20h
  0000000010004754: B8 2B 00 00 00     mov         eax,2Bh
  0000000010004759: 48 8B 4D 10        mov         rcx,qword ptr [rbp+10h]
  000000001000475D: 48 89 01           mov         qword ptr [rcx],rax
  0000000010004760: E9 0C 00 00 00     jmp         0000000010004771
  0000000010004765: B8 12 00 00 00     mov         eax,12h
  000000001000476A: 48 8B 4D 10        mov         rcx,qword ptr [rbp+10h]
  000000001000476E: 48 89 01           mov         qword ptr [rcx],rax
  0000000010004771: E9 45 00 00 00     jmp         00000000100047BB
  0000000010004776: 0F B7 05 E1 E5 FF  movzx       eax,word ptr [0000000010002D5Eh]
                    FF
  000000001000477D: 48 83 F8 2F        cmp         rax,2Fh
  0000000010004781: 0F 85 1E 00 00 00  jne         00000000100047A5
  0000000010004787: 48 83 EC 20        sub         rsp,20h
  000000001000478B: E8 6E E9 FF FF     call        00000000100030FE
  0000000010004790: 48 83 C4 20        add         rsp,20h
  0000000010004794: B8 02 00 00 00     mov         eax,2
  0000000010004799: 48 8B 4D 10        mov         rcx,qword ptr [rbp+10h]
  000000001000479D: 48 89 01           mov         qword ptr [rcx],rax
  00000000100047A0: E9 16 00 00 00     jmp         00000000100047BB
  00000000100047A5: 48 83 EC 20        sub         rsp,20h
  00000000100047A9: E8 50 E9 FF FF     call        00000000100030FE
  00000000100047AE: 48 83 C4 20        add         rsp,20h
  00000000100047B2: 31 C0              xor         eax,eax
  00000000100047B4: 48 8B 4D 10        mov         rcx,qword ptr [rbp+10h]
  00000000100047B8: 48 89 01           mov         qword ptr [rcx],rax
  00000000100047BB: E9 B5 01 00 00     jmp         0000000010004975
  00000000100047C0: 0F B7 05 97 E5 FF  movzx       eax,word ptr [0000000010002D5Eh]
                    FF
  00000000100047C7: 48 83 F8 3A        cmp         rax,3Ah
  00000000100047CB: 0F 83 16 00 00 00  jae         00000000100047E7
  00000000100047D1: 48 83 EC 20        sub         rsp,20h
  00000000100047D5: 48 8B 4D 10        mov         rcx,qword ptr [rbp+10h]
  00000000100047D9: E8 AE F0 FF FF     call        000000001000388C
  00000000100047DE: 48 83 C4 20        add         rsp,20h
  00000000100047E2: E9 8E 01 00 00     jmp         0000000010004975
  00000000100047E7: 0F B7 05 70 E5 FF  movzx       eax,word ptr [0000000010002D5Eh]
                    FF
  00000000100047EE: 48 83 F8 3A        cmp         rax,3Ah
  00000000100047F2: 0F 85 4D 00 00 00  jne         0000000010004845
  00000000100047F8: 48 83 EC 20        sub         rsp,20h
  00000000100047FC: E8 FD E8 FF FF     call        00000000100030FE
  0000000010004801: 48 83 C4 20        add         rsp,20h
  0000000010004805: 0F B7 05 52 E5 FF  movzx       eax,word ptr [0000000010002D5Eh]
                    FF
  000000001000480C: 48 83 F8 3D        cmp         rax,3Dh
  0000000010004810: 0F 85 1E 00 00 00  jne         0000000010004834
  0000000010004816: 48 83 EC 20        sub         rsp,20h
  000000001000481A: E8 DF E8 FF FF     call        00000000100030FE
  000000001000481F: 48 83 C4 20        add         rsp,20h
  0000000010004823: B8 2A 00 00 00     mov         eax,2Ah
  0000000010004828: 48 8B 4D 10        mov         rcx,qword ptr [rbp+10h]
  000000001000482C: 48 89 01           mov         qword ptr [rcx],rax
  000000001000482F: E9 0C 00 00 00     jmp         0000000010004840
  0000000010004834: B8 29 00 00 00     mov         eax,29h
  0000000010004839: 48 8B 4D 10        mov         rcx,qword ptr [rbp+10h]
  000000001000483D: 48 89 01           mov         qword ptr [rcx],rax
  0000000010004840: E9 30 01 00 00     jmp         0000000010004975
  0000000010004845: 0F B7 05 12 E5 FF  movzx       eax,word ptr [0000000010002D5Eh]
                    FF
  000000001000484C: 48 83 F8 3B        cmp         rax,3Bh
  0000000010004850: 0F 85 1E 00 00 00  jne         0000000010004874
  0000000010004856: 48 83 EC 20        sub         rsp,20h
  000000001000485A: E8 9F E8 FF FF     call        00000000100030FE
  000000001000485F: 48 83 C4 20        add         rsp,20h
  0000000010004863: B8 34 00 00 00     mov         eax,34h
  0000000010004868: 48 8B 4D 10        mov         rcx,qword ptr [rbp+10h]
  000000001000486C: 48 89 01           mov         qword ptr [rcx],rax
  000000001000486F: E9 01 01 00 00     jmp         0000000010004975
  0000000010004874: 0F B7 05 E3 E4 FF  movzx       eax,word ptr [0000000010002D5Eh]
                    FF
  000000001000487B: 48 83 F8 3C        cmp         rax,3Ch
  000000001000487F: 0F 85 4D 00 00 00  jne         00000000100048D2
  0000000010004885: 48 83 EC 20        sub         rsp,20h
  0000000010004889: E8 70 E8 FF FF     call        00000000100030FE
  000000001000488E: 48 83 C4 20        add         rsp,20h
  0000000010004892: 0F B7 05 C5 E4 FF  movzx       eax,word ptr [0000000010002D5Eh]
                    FF
  0000000010004899: 48 83 F8 3D        cmp         rax,3Dh
  000000001000489D: 0F 85 1E 00 00 00  jne         00000000100048C1
  00000000100048A3: 48 83 EC 20        sub         rsp,20h
  00000000100048A7: E8 52 E8 FF FF     call        00000000100030FE
  00000000100048AC: 48 83 C4 20        add         rsp,20h
  00000000100048B0: B8 0C 00 00 00     mov         eax,0Ch
  00000000100048B5: 48 8B 4D 10        mov         rcx,qword ptr [rbp+10h]
  00000000100048B9: 48 89 01           mov         qword ptr [rcx],rax
  00000000100048BC: E9 0C 00 00 00     jmp         00000000100048CD
  00000000100048C1: B8 0B 00 00 00     mov         eax,0Bh
  00000000100048C6: 48 8B 4D 10        mov         rcx,qword ptr [rbp+10h]
  00000000100048CA: 48 89 01           mov         qword ptr [rcx],rax
  00000000100048CD: E9 A3 00 00 00     jmp         0000000010004975
  00000000100048D2: 0F B7 05 85 E4 FF  movzx       eax,word ptr [0000000010002D5Eh]
                    FF
  00000000100048D9: 48 83 F8 3D        cmp         rax,3Dh
  00000000100048DD: 0F 85 1E 00 00 00  jne         0000000010004901
  00000000100048E3: 48 83 EC 20        sub         rsp,20h
  00000000100048E7: E8 12 E8 FF FF     call        00000000100030FE
  00000000100048EC: 48 83 C4 20        add         rsp,20h
  00000000100048F0: B8 09 00 00 00     mov         eax,9
  00000000100048F5: 48 8B 4D 10        mov         rcx,qword ptr [rbp+10h]
  00000000100048F9: 48 89 01           mov         qword ptr [rcx],rax
  00000000100048FC: E9 74 00 00 00     jmp         0000000010004975
  0000000010004901: 0F B7 05 56 E4 FF  movzx       eax,word ptr [0000000010002D5Eh]
                    FF
  0000000010004908: 48 83 F8 3E        cmp         rax,3Eh
  000000001000490C: 0F 85 4D 00 00 00  jne         000000001000495F
  0000000010004912: 48 83 EC 20        sub         rsp,20h
  0000000010004916: E8 E3 E7 FF FF     call        00000000100030FE
  000000001000491B: 48 83 C4 20        add         rsp,20h
  000000001000491F: 0F B7 05 38 E4 FF  movzx       eax,word ptr [0000000010002D5Eh]
                    FF
  0000000010004926: 48 83 F8 3D        cmp         rax,3Dh
  000000001000492A: 0F 85 1E 00 00 00  jne         000000001000494E
  0000000010004930: 48 83 EC 20        sub         rsp,20h
  0000000010004934: E8 C5 E7 FF FF     call        00000000100030FE
  0000000010004939: 48 83 C4 20        add         rsp,20h
  000000001000493D: B8 0E 00 00 00     mov         eax,0Eh
  0000000010004942: 48 8B 4D 10        mov         rcx,qword ptr [rbp+10h]
  0000000010004946: 48 89 01           mov         qword ptr [rcx],rax
  0000000010004949: E9 0C 00 00 00     jmp         000000001000495A
  000000001000494E: B8 0D 00 00 00     mov         eax,0Dh
  0000000010004953: 48 8B 4D 10        mov         rcx,qword ptr [rbp+10h]
  0000000010004957: 48 89 01           mov         qword ptr [rcx],rax
  000000001000495A: E9 16 00 00 00     jmp         0000000010004975
  000000001000495F: 48 83 EC 20        sub         rsp,20h
  0000000010004963: E8 96 E7 FF FF     call        00000000100030FE
  0000000010004968: 48 83 C4 20        add         rsp,20h
  000000001000496C: 31 C0              xor         eax,eax
  000000001000496E: 48 8B 4D 10        mov         rcx,qword ptr [rbp+10h]
  0000000010004972: 48 89 01           mov         qword ptr [rcx],rax
  0000000010004975: E9 C7 01 00 00     jmp         0000000010004B41
  000000001000497A: 0F B7 05 DD E3 FF  movzx       eax,word ptr [0000000010002D5Eh]
                    FF
  0000000010004981: 48 83 F8 5B        cmp         rax,5Bh
  0000000010004985: 0F 83 16 00 00 00  jae         00000000100049A1
  000000001000498B: 48 83 EC 20        sub         rsp,20h
  000000001000498F: 48 8B 4D 10        mov         rcx,qword ptr [rbp+10h]
  0000000010004993: E8 D0 E7 FF FF     call        0000000010003168
  0000000010004998: 48 83 C4 20        add         rsp,20h
  000000001000499C: E9 A0 01 00 00     jmp         0000000010004B41
  00000000100049A1: 0F B7 05 B6 E3 FF  movzx       eax,word ptr [0000000010002D5Eh]
                    FF
  00000000100049A8: 48 83 F8 61        cmp         rax,61h
  00000000100049AC: 0F 83 A8 00 00 00  jae         0000000010004A5A
  00000000100049B2: 0F B7 05 A5 E3 FF  movzx       eax,word ptr [0000000010002D5Eh]
                    FF
  00000000100049B9: 48 83 F8 5B        cmp         rax,5Bh
  00000000100049BD: 0F 85 11 00 00 00  jne         00000000100049D4
  00000000100049C3: B8 1D 00 00 00     mov         eax,1Dh
  00000000100049C8: 48 8B 4D 10        mov         rcx,qword ptr [rbp+10h]
  00000000100049CC: 48 89 01           mov         qword ptr [rcx],rax
  00000000100049CF: E9 74 00 00 00     jmp         0000000010004A48
  00000000100049D4: 0F B7 05 83 E3 FF  movzx       eax,word ptr [0000000010002D5Eh]
                    FF
  00000000100049DB: 48 83 F8 5D        cmp         rax,5Dh
  00000000100049DF: 0F 85 11 00 00 00  jne         00000000100049F6
  00000000100049E5: B8 2D 00 00 00     mov         eax,2Dh
  00000000100049EA: 48 8B 4D 10        mov         rcx,qword ptr [rbp+10h]
  00000000100049EE: 48 89 01           mov         qword ptr [rcx],rax
  00000000100049F1: E9 52 00 00 00     jmp         0000000010004A48
  00000000100049F6: 0F B7 05 61 E3 FF  movzx       eax,word ptr [0000000010002D5Eh]
                    FF
  00000000100049FD: 48 83 F8 5E        cmp         rax,5Eh
  0000000010004A01: 0F 85 11 00 00 00  jne         0000000010004A18
  0000000010004A07: B8 11 00 00 00     mov         eax,11h
  0000000010004A0C: 48 8B 4D 10        mov         rcx,qword ptr [rbp+10h]
  0000000010004A10: 48 89 01           mov         qword ptr [rcx],rax
  0000000010004A13: E9 30 00 00 00     jmp         0000000010004A48
  0000000010004A18: 0F B7 05 3F E3 FF  movzx       eax,word ptr [0000000010002D5Eh]
                    FF
  0000000010004A1F: 48 83 F8 5F        cmp         rax,5Fh
  0000000010004A23: 0F 85 16 00 00 00  jne         0000000010004A3F
  0000000010004A29: 48 83 EC 20        sub         rsp,20h
  0000000010004A2D: 48 8B 4D 10        mov         rcx,qword ptr [rbp+10h]
  0000000010004A31: E8 32 E7 FF FF     call        0000000010003168
  0000000010004A36: 48 83 C4 20        add         rsp,20h
  0000000010004A3A: E9 09 00 00 00     jmp         0000000010004A48
  0000000010004A3F: 31 C0              xor         eax,eax
  0000000010004A41: 48 8B 4D 10        mov         rcx,qword ptr [rbp+10h]
  0000000010004A45: 48 89 01           mov         qword ptr [rcx],rax
  0000000010004A48: 48 83 EC 20        sub         rsp,20h
  0000000010004A4C: E8 AD E6 FF FF     call        00000000100030FE
  0000000010004A51: 48 83 C4 20        add         rsp,20h
  0000000010004A55: E9 E7 00 00 00     jmp         0000000010004B41
  0000000010004A5A: 0F B7 05 FD E2 FF  movzx       eax,word ptr [0000000010002D5Eh]
                    FF
  0000000010004A61: 48 83 F8 7B        cmp         rax,7Bh
  0000000010004A65: 0F 83 16 00 00 00  jae         0000000010004A81
  0000000010004A6B: 48 83 EC 20        sub         rsp,20h
  0000000010004A6F: 48 8B 4D 10        mov         rcx,qword ptr [rbp+10h]
  0000000010004A73: E8 F0 E6 FF FF     call        0000000010003168
  0000000010004A78: 48 83 C4 20        add         rsp,20h
  0000000010004A7C: E9 C0 00 00 00     jmp         0000000010004B41
  0000000010004A81: 0F B7 05 D6 E2 FF  movzx       eax,word ptr [0000000010002D5Eh]
                    FF
  0000000010004A88: 48 83 F8 7B        cmp         rax,7Bh
  0000000010004A8C: 0F 85 11 00 00 00  jne         0000000010004AA3
  0000000010004A92: B8 1E 00 00 00     mov         eax,1Eh
  0000000010004A97: 48 8B 4D 10        mov         rcx,qword ptr [rbp+10h]
  0000000010004A9B: 48 89 01           mov         qword ptr [rcx],rax
  0000000010004A9E: E9 91 00 00 00     jmp         0000000010004B34
  0000000010004AA3: 0F B7 05 B4 E2 FF  movzx       eax,word ptr [0000000010002D5Eh]
                    FF
  0000000010004AAA: 48 83 F8 7D        cmp         rax,7Dh
  0000000010004AAE: 0F 85 11 00 00 00  jne         0000000010004AC5
  0000000010004AB4: B8 2E 00 00 00     mov         eax,2Eh
  0000000010004AB9: 48 8B 4D 10        mov         rcx,qword ptr [rbp+10h]
  0000000010004ABD: 48 89 01           mov         qword ptr [rcx],rax
  0000000010004AC0: E9 6F 00 00 00     jmp         0000000010004B34
  0000000010004AC5: 0F B7 05 92 E2 FF  movzx       eax,word ptr [0000000010002D5Eh]
                    FF
  0000000010004ACC: 48 83 F8 7C        cmp         rax,7Ch
  0000000010004AD0: 0F 85 11 00 00 00  jne         0000000010004AE7
  0000000010004AD6: B8 36 00 00 00     mov         eax,36h
  0000000010004ADB: 48 8B 4D 10        mov         rcx,qword ptr [rbp+10h]
  0000000010004ADF: 48 89 01           mov         qword ptr [rcx],rax
  0000000010004AE2: E9 4D 00 00 00     jmp         0000000010004B34
  0000000010004AE7: 0F B7 05 70 E2 FF  movzx       eax,word ptr [0000000010002D5Eh]
                    FF
  0000000010004AEE: 48 83 F8 7E        cmp         rax,7Eh
  0000000010004AF2: 0F 85 11 00 00 00  jne         0000000010004B09
  0000000010004AF8: B8 1B 00 00 00     mov         eax,1Bh
  0000000010004AFD: 48 8B 4D 10        mov         rcx,qword ptr [rbp+10h]
  0000000010004B01: 48 89 01           mov         qword ptr [rcx],rax
  0000000010004B04: E9 2B 00 00 00     jmp         0000000010004B34
  0000000010004B09: 0F B7 05 4E E2 FF  movzx       eax,word ptr [0000000010002D5Eh]
                    FF
  0000000010004B10: 48 83 F8 7F        cmp         rax,7Fh
  0000000010004B14: 0F 85 11 00 00 00  jne         0000000010004B2B
  0000000010004B1A: B8 2B 00 00 00     mov         eax,2Bh
  0000000010004B1F: 48 8B 4D 10        mov         rcx,qword ptr [rbp+10h]
  0000000010004B23: 48 89 01           mov         qword ptr [rcx],rax
  0000000010004B26: E9 09 00 00 00     jmp         0000000010004B34
  0000000010004B2B: 31 C0              xor         eax,eax
  0000000010004B2D: 48 8B 4D 10        mov         rcx,qword ptr [rbp+10h]
  0000000010004B31: 48 89 01           mov         qword ptr [rcx],rax
  0000000010004B34: 48 83 EC 20        sub         rsp,20h
  0000000010004B38: E8 C1 E5 FF FF     call        00000000100030FE
  0000000010004B3D: 48 83 C4 20        add         rsp,20h
  0000000010004B41: 48 8B 45 10        mov         rax,qword ptr [rbp+10h]
  0000000010004B45: 48 8B 00           mov         rax,qword ptr [rax]
  0000000010004B48: 48 85 C0           test        rax,rax
  0000000010004B4B: 0F 85 0F 00 00 00  jne         0000000010004B60
  0000000010004B51: 0F B6 05 05 E2 FF  movzx       eax,byte ptr [0000000010002D5Dh]
                    FF
  0000000010004B58: 85 C0              test        eax,eax
  0000000010004B5A: 0F 84 3B F9 FF FF  je          000000001000449B
  0000000010004B60: C9                 leave
  0000000010004B61: C3                 ret
  0000000010004B62: 55                 push        rbp
  0000000010004B63: 48 8B EC           mov         rbp,rsp
  0000000010004B66: 56                 push        rsi
  0000000010004B67: 57                 push        rdi
  0000000010004B68: 48 89 4D 10        mov         qword ptr [rbp+10h],rcx
  0000000010004B6C: 48 89 55 18        mov         qword ptr [rbp+18h],rdx
  0000000010004B70: 4C 89 45 20        mov         qword ptr [rbp+20h],r8
  0000000010004B74: 48 8D 3D CD E1 FF  lea         rdi,[0000000010002D48h]
                    FF
  0000000010004B7B: 48 8B 75 10        mov         rsi,qword ptr [rbp+10h]
  0000000010004B7F: B9 01 00 00 00     mov         ecx,1
  0000000010004B84: F3 48 A5           rep movs    qword ptr [rdi],qword ptr [rsi]
  0000000010004B87: 48 8B 45 20        mov         rax,qword ptr [rbp+20h]
  0000000010004B8B: 48 89 05 BE E1 FF  mov         qword ptr [0000000010002D50h],rax
                    FF
  0000000010004B92: 31 C0              xor         eax,eax
  0000000010004B94: 48 89 05 C5 E1 FF  mov         qword ptr [0000000010002D60h],rax
                    FF
  0000000010004B9B: 48 83 EC 20        sub         rsp,20h
  0000000010004B9F: 48 8B 4D 10        mov         rcx,qword ptr [rbp+10h]
  0000000010004BA3: 48 8B 55 18        mov         rdx,qword ptr [rbp+18h]
  0000000010004BA7: 4C 8B 45 20        mov         r8,qword ptr [rbp+20h]
  0000000010004BAB: FF 15 B7 CA FF FF  call        qword ptr [0000000010001668h]
  0000000010004BB1: 48 83 C4 20        add         rsp,20h
  0000000010004BB5: 48 83 EC 20        sub         rsp,20h
  0000000010004BB9: E8 40 E5 FF FF     call        00000000100030FE
  0000000010004BBE: 48 83 C4 20        add         rsp,20h
  0000000010004BC2: 5F                 pop         rdi
  0000000010004BC3: 5E                 pop         rsi
  0000000010004BC4: C9                 leave
  0000000010004BC5: C3                 ret
  0000000010004BC6: 55                 push        rbp
  0000000010004BC7: 48 8B EC           mov         rbp,rsp
  0000000010004BCA: 48 89 4D 10        mov         qword ptr [rbp+10h],rcx
  0000000010004BCE: 48 89 55 18        mov         qword ptr [rbp+18h],rdx
  0000000010004BD2: 4C 89 45 20        mov         qword ptr [rbp+20h],r8
  0000000010004BD6: 48 83 EC 20        sub         rsp,20h
  0000000010004BDA: 48 8B 4D 18        mov         rcx,qword ptr [rbp+18h]
  0000000010004BDE: 48 8B 55 20        mov         rdx,qword ptr [rbp+20h]
  0000000010004BE2: 4C 8B 05 57 E1 FF  mov         r8,qword ptr [0000000010002D40h]
                    FF
  0000000010004BE9: 49 83 F8 23        cmp         r8,23h
  0000000010004BED: 0F 83 05 00 00 00  jae         0000000010004BF8
  0000000010004BF3: E9 08 00 00 00     jmp         0000000010004C00
  0000000010004BF8: B0 01              mov         al,1
  0000000010004BFA: B9 53 26 00 00     mov         ecx,2653h
  0000000010004BFF: CC                 int         3
  0000000010004C00: 4D 69 C0 88 00 00  imul        r8,r8,88h
                    00
  0000000010004C07: 4C 8D 0D 4A CE FF  lea         r9,[0000000010001A58h]
                    FF
  0000000010004C0E: 4D 03 C1           add         r8,r9
  0000000010004C11: 49 83 C0 08        add         r8,8
  0000000010004C15: 41 B9 40 00 00 00  mov         r9d,40h
  0000000010004C1B: FF 15 3F CA FF FF  call        qword ptr [0000000010001660h]
  0000000010004C21: 48 83 C4 20        add         rsp,20h
  0000000010004C25: 48 8B 05 14 E1 FF  mov         rax,qword ptr [0000000010002D40h]
                    FF
  0000000010004C2C: 48 83 F8 23        cmp         rax,23h
  0000000010004C30: 0F 83 05 00 00 00  jae         0000000010004C3B
  0000000010004C36: E9 08 00 00 00     jmp         0000000010004C43
  0000000010004C3B: B0 01              mov         al,1
  0000000010004C3D: B9 62 26 00 00     mov         ecx,2662h
  0000000010004C42: CC                 int         3
  0000000010004C43: 48 69 C0 88 00 00  imul        rax,rax,88h
                    00
  0000000010004C4A: 48 8D 0D 07 CE FF  lea         rcx,[0000000010001A58h]
                    FF
  0000000010004C51: 48 03 C1           add         rax,rcx
  0000000010004C54: 48 8B 4D 10        mov         rcx,qword ptr [rbp+10h]
  0000000010004C58: 48 89 08           mov         qword ptr [rax],rcx
  0000000010004C5B: 48 83 05 DD E0 FF  add         qword ptr [0000000010002D40h],1
                    FF 01
  0000000010004C63: C9                 leave
  0000000010004C64: C3                 ret
  0000000010004C65: 55                 push        rbp
  0000000010004C66: 48 8B EC           mov         rbp,rsp
  0000000010004C69: 31 C0              xor         eax,eax
  0000000010004C6B: 48 89 05 CE E0 FF  mov         qword ptr [0000000010002D40h],rax
                    FF
  0000000010004C72: 31 C0              xor         eax,eax
  0000000010004C74: 48 89 05 75 E0 FF  mov         qword ptr [0000000010002CF0h],rax
                    FF
  0000000010004C7B: 31 C0              xor         eax,eax
  0000000010004C7D: 48 89 05 74 E0 FF  mov         qword ptr [0000000010002CF8h],rax
                    FF
  0000000010004C84: 48 83 EC 20        sub         rsp,20h
  0000000010004C88: B9 20 00 00 00     mov         ecx,20h
  0000000010004C8D: 48 8D 15 C6 C9 FF  lea         rdx,[000000001000165Ah]
                    FF
  0000000010004C94: 41 B8 03 00 00 00  mov         r8d,3
  0000000010004C9A: E8 27 FF FF FF     call        0000000010004BC6
  0000000010004C9F: 48 83 C4 20        add         rsp,20h
  0000000010004CA3: 48 83 EC 20        sub         rsp,20h
  0000000010004CA7: B9 31 00 00 00     mov         ecx,31h
  0000000010004CAC: 48 8D 15 A1 C9 FF  lea         rdx,[0000000010001654h]
                    FF
  0000000010004CB3: 41 B8 03 00 00 00  mov         r8d,3
  0000000010004CB9: E8 08 FF FF FF     call        0000000010004BC6
  0000000010004CBE: 48 83 C4 20        add         rsp,20h
  0000000010004CC2: 48 83 EC 20        sub         rsp,20h
  0000000010004CC6: B9 30 00 00 00     mov         ecx,30h
  0000000010004CCB: 48 8D 15 7C C9 FF  lea         rdx,[000000001000164Eh]
                    FF
  0000000010004CD2: 41 B8 03 00 00 00  mov         r8d,3
  0000000010004CD8: E8 E9 FE FF FF     call        0000000010004BC6
  0000000010004CDD: 48 83 C4 20        add         rsp,20h
  0000000010004CE1: 48 83 EC 20        sub         rsp,20h
  0000000010004CE5: B9 08 00 00 00     mov         ecx,8
  0000000010004CEA: 48 8D 15 57 C9 FF  lea         rdx,[0000000010001648h]
                    FF
  0000000010004CF1: 41 B8 03 00 00 00  mov         r8d,3
  0000000010004CF7: E8 CA FE FF FF     call        0000000010004BC6
  0000000010004CFC: 48 83 C4 20        add         rsp,20h
  0000000010004D00: 48 83 EC 20        sub         rsp,20h
  0000000010004D04: B9 32 00 00 00     mov         ecx,32h
  0000000010004D09: 48 8D 15 32 C9 FF  lea         rdx,[0000000010001642h]
                    FF
  0000000010004D10: 41 B8 03 00 00 00  mov         r8d,3
  0000000010004D16: E8 AB FE FF FF     call        0000000010004BC6
  0000000010004D1B: 48 83 C4 20        add         rsp,20h
  0000000010004D1F: 48 83 EC 20        sub         rsp,20h
  0000000010004D23: B9 0F 00 00 00     mov         ecx,0Fh
  0000000010004D28: 48 8D 15 0D C9 FF  lea         rdx,[000000001000163Ch]
                    FF
  0000000010004D2F: 41 B8 03 00 00 00  mov         r8d,3
  0000000010004D35: E8 8C FE FF FF     call        0000000010004BC6
  0000000010004D3A: 48 83 C4 20        add         rsp,20h
  0000000010004D3E: 48 83 EC 20        sub         rsp,20h
  0000000010004D42: B9 10 00 00 00     mov         ecx,10h
  0000000010004D47: 48 8D 15 E8 C8 FF  lea         rdx,[0000000010001636h]
                    FF
  0000000010004D4E: 41 B8 03 00 00 00  mov         r8d,3
  0000000010004D54: E8 6D FE FF FF     call        0000000010004BC6
  0000000010004D59: 48 83 C4 20        add         rsp,20h
  0000000010004D5D: 48 83 EC 20        sub         rsp,20h
  0000000010004D61: B9 33 00 00 00     mov         ecx,33h
  0000000010004D66: 48 8D 15 C3 C8 FF  lea         rdx,[0000000010001630h]
                    FF
  0000000010004D6D: 41 B8 03 00 00 00  mov         r8d,3
  0000000010004D73: E8 4E FE FF FF     call        0000000010004BC6
  0000000010004D78: 48 83 C4 20        add         rsp,20h
  0000000010004D7C: 48 8B 05 BD DF FF  mov         rax,qword ptr [0000000010002D40h]
                    FF
  0000000010004D83: 48 89 05 76 DF FF  mov         qword ptr [0000000010002D00h],rax
                    FF
  0000000010004D8A: 48 83 EC 20        sub         rsp,20h
  0000000010004D8E: B9 35 00 00 00     mov         ecx,35h
  0000000010004D93: 48 8D 15 8E C8 FF  lea         rdx,[0000000010001628h]
                    FF
  0000000010004D9A: 41 B8 04 00 00 00  mov         r8d,4
  0000000010004DA0: E8 21 FE FF FF     call        0000000010004BC6
  0000000010004DA5: 48 83 C4 20        add         rsp,20h
  0000000010004DA9: 48 83 EC 20        sub         rsp,20h
  0000000010004DAD: B9 19 00 00 00     mov         ecx,19h
  0000000010004DB2: 48 8D 15 67 C8 FF  lea         rdx,[0000000010001620h]
                    FF
  0000000010004DB9: 41 B8 04 00 00 00  mov         r8d,4
  0000000010004DBF: E8 02 FE FF FF     call        0000000010004BC6
  0000000010004DC4: 48 83 C4 20        add         rsp,20h
  0000000010004DC8: 48 83 EC 20        sub         rsp,20h
  0000000010004DCC: B9 48 00 00 00     mov         ecx,48h
  0000000010004DD1: 48 8D 15 40 C8 FF  lea         rdx,[0000000010001618h]
                    FF
  0000000010004DD8: 41 B8 04 00 00 00  mov         r8d,4
  0000000010004DDE: E8 E3 FD FF FF     call        0000000010004BC6
  0000000010004DE3: 48 83 C4 20        add         rsp,20h
  0000000010004DE7: 48 83 EC 20        sub         rsp,20h
  0000000010004DEB: B9 03 00 00 00     mov         ecx,3
  0000000010004DF0: 48 8D 15 19 C8 FF  lea         rdx,[0000000010001610h]
                    FF
  0000000010004DF7: 41 B8 04 00 00 00  mov         r8d,4
  0000000010004DFD: E8 C4 FD FF FF     call        0000000010004BC6
  0000000010004E02: 48 83 C4 20        add         rsp,20h
  0000000010004E06: 48 83 EC 20        sub         rsp,20h
  0000000010004E0A: B9 04 00 00 00     mov         ecx,4
  0000000010004E0F: 48 8D 15 F2 C7 FF  lea         rdx,[0000000010001608h]
                    FF
  0000000010004E16: 41 B8 04 00 00 00  mov         r8d,4
  0000000010004E1C: E8 A5 FD FF FF     call        0000000010004BC6
  0000000010004E21: 48 83 C4 20        add         rsp,20h
  0000000010004E25: 48 83 EC 20        sub         rsp,20h
  0000000010004E29: B9 25 00 00 00     mov         ecx,25h
  0000000010004E2E: 48 8D 15 CB C7 FF  lea         rdx,[0000000010001600h]
                    FF
  0000000010004E35: 41 B8 04 00 00 00  mov         r8d,4
  0000000010004E3B: E8 86 FD FF FF     call        0000000010004BC6
  0000000010004E40: 48 83 C4 20        add         rsp,20h
  0000000010004E44: 48 8B 05 F5 DE FF  mov         rax,qword ptr [0000000010002D40h]
                    FF
  0000000010004E4B: 48 89 05 B6 DE FF  mov         qword ptr [0000000010002D08h],rax
                    FF
  0000000010004E52: 48 83 EC 20        sub         rsp,20h
  0000000010004E56: B9 37 00 00 00     mov         ecx,37h
  0000000010004E5B: 48 8D 15 94 C7 FF  lea         rdx,[00000000100015F6h]
                    FF
  0000000010004E62: 41 B8 05 00 00 00  mov         r8d,5
  0000000010004E68: E8 59 FD FF FF     call        0000000010004BC6
  0000000010004E6D: 48 83 C4 20        add         rsp,20h
  0000000010004E71: 48 83 EC 20        sub         rsp,20h
  0000000010004E75: B9 2F 00 00 00     mov         ecx,2Fh
  0000000010004E7A: 48 8D 15 6B C7 FF  lea         rdx,[00000000100015ECh]
                    FF
  0000000010004E81: 41 B8 05 00 00 00  mov         r8d,5
  0000000010004E87: E8 3A FD FF FF     call        0000000010004BC6
  0000000010004E8C: 48 83 C4 20        add         rsp,20h
  0000000010004E90: 48 83 EC 20        sub         rsp,20h
  0000000010004E94: B9 18 00 00 00     mov         ecx,18h
  0000000010004E99: 48 8D 15 42 C7 FF  lea         rdx,[00000000100015E2h]
                    FF
  0000000010004EA0: 41 B8 05 00 00 00  mov         r8d,5
  0000000010004EA6: E8 1B FD FF FF     call        0000000010004BC6
  0000000010004EAB: 48 83 C4 20        add         rsp,20h
  0000000010004EAF: 48 83 EC 20        sub         rsp,20h
  0000000010004EB3: B9 47 00 00 00     mov         ecx,47h
  0000000010004EB8: 48 8D 15 19 C7 FF  lea         rdx,[00000000100015D8h]
                    FF
  0000000010004EBF: 41 B8 05 00 00 00  mov         r8d,5
  0000000010004EC5: E8 FC FC FF FF     call        0000000010004BC6
  0000000010004ECA: 48 83 C4 20        add         rsp,20h
  0000000010004ECE: 48 83 EC 20        sub         rsp,20h
  0000000010004ED2: B9 24 00 00 00     mov         ecx,24h
  0000000010004ED7: 48 8D 15 F0 C6 FF  lea         rdx,[00000000100015CEh]
                    FF
  0000000010004EDE: 41 B8 05 00 00 00  mov         r8d,5
  0000000010004EE4: E8 DD FC FF FF     call        0000000010004BC6
  0000000010004EE9: 48 83 C4 20        add         rsp,20h
  0000000010004EED: 48 8B 05 4C DE FF  mov         rax,qword ptr [0000000010002D40h]
                    FF
  0000000010004EF4: 48 89 05 15 DE FF  mov         qword ptr [0000000010002D10h],rax
                    FF
  0000000010004EFB: 48 83 EC 20        sub         rsp,20h
  0000000010004EFF: B9 38 00 00 00     mov         ecx,38h
  0000000010004F04: 48 8D 15 B7 C6 FF  lea         rdx,[00000000100015C2h]
                    FF
  0000000010004F0B: 41 B8 06 00 00 00  mov         r8d,6
  0000000010004F11: E8 B0 FC FF FF     call        0000000010004BC6
  0000000010004F16: 48 83 C4 20        add         rsp,20h
  0000000010004F1A: 48 83 EC 20        sub         rsp,20h
  0000000010004F1E: B9 17 00 00 00     mov         ecx,17h
  0000000010004F23: 48 8D 15 8C C6 FF  lea         rdx,[00000000100015B6h]
                    FF
  0000000010004F2A: 41 B8 06 00 00 00  mov         r8d,6
  0000000010004F30: E8 91 FC FF FF     call        0000000010004BC6
  0000000010004F35: 48 83 C4 20        add         rsp,20h
  0000000010004F39: 48 83 EC 20        sub         rsp,20h
  0000000010004F3D: B9 3C 00 00 00     mov         ecx,3Ch
  0000000010004F42: 48 8D 15 61 C6 FF  lea         rdx,[00000000100015AAh]
                    FF
  0000000010004F49: 41 B8 06 00 00 00  mov         r8d,6
  0000000010004F4F: E8 72 FC FF FF     call        0000000010004BC6
  0000000010004F54: 48 83 C4 20        add         rsp,20h
  0000000010004F58: 48 83 EC 20        sub         rsp,20h
  0000000010004F5C: B9 4A 00 00 00     mov         ecx,4Ah
  0000000010004F61: 48 8D 15 36 C6 FF  lea         rdx,[000000001000159Eh]
                    FF
  0000000010004F68: 41 B8 06 00 00 00  mov         r8d,6
  0000000010004F6E: E8 53 FC FF FF     call        0000000010004BC6
  0000000010004F73: 48 83 C4 20        add         rsp,20h
  0000000010004F77: 48 83 EC 20        sub         rsp,20h
  0000000010004F7B: B9 46 00 00 00     mov         ecx,46h
  0000000010004F80: 48 8D 15 0B C6 FF  lea         rdx,[0000000010001592h]
                    FF
  0000000010004F87: 41 B8 06 00 00 00  mov         r8d,6
  0000000010004F8D: E8 34 FC FF FF     call        0000000010004BC6
  0000000010004F92: 48 83 C4 20        add         rsp,20h
  0000000010004F96: 48 83 EC 20        sub         rsp,20h
  0000000010004F9A: B9 39 00 00 00     mov         ecx,39h
  0000000010004F9F: 48 8D 15 E0 C5 FF  lea         rdx,[0000000010001586h]
                    FF
  0000000010004FA6: 41 B8 06 00 00 00  mov         r8d,6
  0000000010004FAC: E8 15 FC FF FF     call        0000000010004BC6
  0000000010004FB1: 48 83 C4 20        add         rsp,20h
  0000000010004FB5: 48 83 EC 20        sub         rsp,20h
  0000000010004FB9: B9 22 00 00 00     mov         ecx,22h
  0000000010004FBE: 48 8D 15 B5 C5 FF  lea         rdx,[000000001000157Ah]
                    FF
  0000000010004FC5: 41 B8 06 00 00 00  mov         r8d,6
  0000000010004FCB: E8 F6 FB FF FF     call        0000000010004BC6
  0000000010004FD0: 48 83 C4 20        add         rsp,20h
  0000000010004FD4: 48 8B 05 65 DD FF  mov         rax,qword ptr [0000000010002D40h]
                    FF
  0000000010004FDB: 48 89 05 36 DD FF  mov         qword ptr [0000000010002D18h],rax
                    FF
  0000000010004FE2: 48 83 EC 20        sub         rsp,20h
  0000000010004FE6: B9 3D 00 00 00     mov         ecx,3Dh
  0000000010004FEB: 48 8D 15 7A C5 FF  lea         rdx,[000000001000156Ch]
                    FF
  0000000010004FF2: 41 B8 07 00 00 00  mov         r8d,7
  0000000010004FF8: E8 C9 FB FF FF     call        0000000010004BC6
  0000000010004FFD: 48 83 C4 20        add         rsp,20h
  0000000010005001: 48 83 EC 20        sub         rsp,20h
  0000000010005005: B9 23 00 00 00     mov         ecx,23h
  000000001000500A: 48 8D 15 4D C5 FF  lea         rdx,[000000001000155Eh]
                    FF
  0000000010005011: 41 B8 07 00 00 00  mov         r8d,7
  0000000010005017: E8 AA FB FF FF     call        0000000010004BC6
  000000001000501C: 48 83 C4 20        add         rsp,20h
  0000000010005020: 48 83 EC 20        sub         rsp,20h
  0000000010005024: B9 4B 00 00 00     mov         ecx,4Bh
  0000000010005029: 48 8D 15 20 C5 FF  lea         rdx,[0000000010001550h]
                    FF
  0000000010005030: 41 B8 07 00 00 00  mov         r8d,7
  0000000010005036: E8 8B FB FF FF     call        0000000010004BC6
  000000001000503B: 48 83 C4 20        add         rsp,20h
  000000001000503F: 48 83 EC 20        sub         rsp,20h
  0000000010005043: B9 4C 00 00 00     mov         ecx,4Ch
  0000000010005048: 48 8D 15 F3 C4 FF  lea         rdx,[0000000010001542h]
                    FF
  000000001000504F: 41 B8 07 00 00 00  mov         r8d,7
  0000000010005055: E8 6C FB FF FF     call        0000000010004BC6
  000000001000505A: 48 83 C4 20        add         rsp,20h
  000000001000505E: 48 83 EC 20        sub         rsp,20h
  0000000010005062: B9 4D 00 00 00     mov         ecx,4Dh
  0000000010005067: 48 8D 15 C6 C4 FF  lea         rdx,[0000000010001534h]
                    FF
  000000001000506E: 41 B8 07 00 00 00  mov         r8d,7
  0000000010005074: E8 4D FB FF FF     call        0000000010004BC6
  0000000010005079: 48 83 C4 20        add         rsp,20h
  000000001000507D: 48 8B 05 BC DC FF  mov         rax,qword ptr [0000000010002D40h]
                    FF
  0000000010005084: 48 89 05 95 DC FF  mov         qword ptr [0000000010002D20h],rax
                    FF
  000000001000508B: 48 83 EC 20        sub         rsp,20h
  000000001000508F: B9 3E 00 00 00     mov         ecx,3Eh
  0000000010005094: 48 8D 15 89 C4 FF  lea         rdx,[0000000010001524h]
                    FF
  000000001000509B: 41 B8 08 00 00 00  mov         r8d,8
  00000000100050A1: E8 20 FB FF FF     call        0000000010004BC6
  00000000100050A6: 48 83 C4 20        add         rsp,20h
  00000000100050AA: 48 83 EC 20        sub         rsp,20h
  00000000100050AE: B9 3F 00 00 00     mov         ecx,3Fh
  00000000100050B3: 48 8D 15 5A C4 FF  lea         rdx,[0000000010001514h]
                    FF
  00000000100050BA: 41 B8 08 00 00 00  mov         r8d,8
  00000000100050C0: E8 01 FB FF FF     call        0000000010004BC6
  00000000100050C5: 48 83 C4 20        add         rsp,20h
  00000000100050C9: 48 8B 05 70 DC FF  mov         rax,qword ptr [0000000010002D40h]
                    FF
  00000000100050D0: 48 89 05 51 DC FF  mov         qword ptr [0000000010002D28h],rax
                    FF
  00000000100050D7: 48 8B 05 62 DC FF  mov         rax,qword ptr [0000000010002D40h]
                    FF
  00000000100050DE: 48 89 05 4B DC FF  mov         qword ptr [0000000010002D30h],rax
                    FF
  00000000100050E5: 48 83 EC 20        sub         rsp,20h
  00000000100050E9: B9 49 00 00 00     mov         ecx,49h
  00000000100050EE: 48 8D 15 0B C4 FF  lea         rdx,[0000000010001500h]
                    FF
  00000000100050F5: 41 B8 0A 00 00 00  mov         r8d,0Ah
  00000000100050FB: E8 C6 FA FF FF     call        0000000010004BC6
  0000000010005100: 48 83 C4 20        add         rsp,20h
  0000000010005104: 48 8B 05 35 DC FF  mov         rax,qword ptr [0000000010002D40h]
                    FF
  000000001000510B: 48 89 05 26 DC FF  mov         qword ptr [0000000010002D38h],rax
                    FF
  0000000010005112: C9                 leave
  0000000010005113: C3                 ret
  0000000010005114: 83 FA 01           cmp         edx,1
  0000000010005117: 0F 84 01 00 00 00  je          000000001000511E
  000000001000511D: C3                 ret
  000000001000511E: 56                 push        rsi
  000000001000511F: 57                 push        rdi
  0000000010005120: 48 83 EC 28        sub         rsp,28h
  0000000010005124: FF 15 06 C9 FF FF  call        qword ptr [0000000010001A30h]
  000000001000512A: 48 89 05 DF C8 FF  mov         qword ptr [0000000010001A10h],rax
                    FF
  0000000010005131: 48 8D 0D B6 C3 FF  lea         rcx,[00000000100014EEh]
                    FF
  0000000010005138: FF 15 E2 C8 FF FF  call        qword ptr [0000000010001A20h]
  000000001000513E: 48 8B F0           mov         rsi,rax
  0000000010005141: 48 B8 00 00 00 00  mov         rax,0
                    00 00 00 00
  000000001000514B: 48 3B 86 F0 03 00  cmp         rax,qword ptr [rsi+00000000000003F0h]
                    00
  0000000010005152: 0F 85 05 00 00 00  jne         000000001000515D
  0000000010005158: E9 08 00 00 00     jmp         0000000010005165
  000000001000515D: B0 05              mov         al,5
  000000001000515F: B9 8A 2A 00 00     mov         ecx,2A8Ah
  0000000010005164: CC                 int         3
  0000000010005165: 48 B8 00 00 00 00  mov         rax,0
                    00 00 00 00
  000000001000516F: 48 3B 86 F8 03 00  cmp         rax,qword ptr [rsi+00000000000003F8h]
                    00
  0000000010005176: 0F 85 05 00 00 00  jne         0000000010005181
  000000001000517C: E9 08 00 00 00     jmp         0000000010005189
  0000000010005181: B0 05              mov         al,5
  0000000010005183: B9 8A 2A 00 00     mov         ecx,2A8Ah
  0000000010005188: CC                 int         3
  0000000010005189: 48 8B CE           mov         rcx,rsi
  000000001000518C: BA 20 00 00 00     mov         edx,20h
  0000000010005191: FF 15 91 C8 FF FF  call        qword ptr [0000000010001A28h]
  0000000010005197: 48 89 05 AA C5 FF  mov         qword ptr [0000000010001748h],rax
                    FF
  000000001000519E: 48 8B CE           mov         rcx,rsi
  00000000100051A1: BA 1B 00 00 00     mov         edx,1Bh
  00000000100051A6: FF 15 7C C8 FF FF  call        qword ptr [0000000010001A28h]
  00000000100051AC: 48 89 05 AD C4 FF  mov         qword ptr [0000000010001660h],rax
                    FF
  00000000100051B3: 48 8D 0D 1C C3 FF  lea         rcx,[00000000100014D6h]
                    FF
  00000000100051BA: FF 15 60 C8 FF FF  call        qword ptr [0000000010001A20h]
  00000000100051C0: 48 8B F0           mov         rsi,rax
  00000000100051C3: 48 B8 00 00 00 00  mov         rax,0
                    00 00 00 00
  00000000100051CD: 48 3B 86 F0 03 00  cmp         rax,qword ptr [rsi+00000000000003F0h]
                    00
  00000000100051D4: 0F 85 05 00 00 00  jne         00000000100051DF
  00000000100051DA: E9 08 00 00 00     jmp         00000000100051E7
  00000000100051DF: B0 05              mov         al,5
  00000000100051E1: B9 8A 2A 00 00     mov         ecx,2A8Ah
  00000000100051E6: CC                 int         3
  00000000100051E7: 48 B8 00 00 00 00  mov         rax,0
                    00 00 00 00
  00000000100051F1: 48 3B 86 F8 03 00  cmp         rax,qword ptr [rsi+00000000000003F8h]
                    00
  00000000100051F8: 0F 85 05 00 00 00  jne         0000000010005203
  00000000100051FE: E9 08 00 00 00     jmp         000000001000520B
  0000000010005203: B0 05              mov         al,5
  0000000010005205: B9 8A 2A 00 00     mov         ecx,2A8Ah
  000000001000520A: CC                 int         3
  000000001000520B: 48 8B CE           mov         rcx,rsi
  000000001000520E: BA 05 00 00 00     mov         edx,5
  0000000010005213: FF 15 0F C8 FF FF  call        qword ptr [0000000010001A28h]
  0000000010005219: 48 89 05 30 C7 FF  mov         qword ptr [0000000010001950h],rax
                    FF
  0000000010005220: 48 8B CE           mov         rcx,rsi
  0000000010005223: BA 03 00 00 00     mov         edx,3
  0000000010005228: FF 15 FA C7 FF FF  call        qword ptr [0000000010001A28h]
  000000001000522E: 48 89 05 3B C7 FF  mov         qword ptr [0000000010001970h],rax
                    FF
  0000000010005235: 48 8B CE           mov         rcx,rsi
  0000000010005238: BA 02 00 00 00     mov         edx,2
  000000001000523D: FF 15 E5 C7 FF FF  call        qword ptr [0000000010001A28h]
  0000000010005243: 48 89 05 F6 C6 FF  mov         qword ptr [0000000010001940h],rax
                    FF
  000000001000524A: 48 8D 0D 75 C2 FF  lea         rcx,[00000000100014C6h]
                    FF
  0000000010005251: FF 15 C9 C7 FF FF  call        qword ptr [0000000010001A20h]
  0000000010005257: 48 8B F0           mov         rsi,rax
  000000001000525A: 48 B8 00 00 00 00  mov         rax,0
                    00 00 00 00
  0000000010005264: 48 3B 86 F0 03 00  cmp         rax,qword ptr [rsi+00000000000003F0h]
                    00
  000000001000526B: 0F 85 05 00 00 00  jne         0000000010005276
  0000000010005271: E9 08 00 00 00     jmp         000000001000527E
  0000000010005276: B0 05              mov         al,5
  0000000010005278: B9 8A 2A 00 00     mov         ecx,2A8Ah
  000000001000527D: CC                 int         3
  000000001000527E: 48 B8 00 00 00 00  mov         rax,0
                    00 00 00 00
  0000000010005288: 48 3B 86 F8 03 00  cmp         rax,qword ptr [rsi+00000000000003F8h]
                    00
  000000001000528F: 0F 85 05 00 00 00  jne         000000001000529A
  0000000010005295: E9 08 00 00 00     jmp         00000000100052A2
  000000001000529A: B0 05              mov         al,5
  000000001000529C: B9 8A 2A 00 00     mov         ecx,2A8Ah
  00000000100052A1: CC                 int         3
  00000000100052A2: 48 8B CE           mov         rcx,rsi
  00000000100052A5: BA 14 00 00 00     mov         edx,14h
  00000000100052AA: FF 15 78 C7 FF FF  call        qword ptr [0000000010001A28h]
  00000000100052B0: 48 89 05 B1 C3 FF  mov         qword ptr [0000000010001668h],rax
                    FF
  00000000100052B7: 48 8B CE           mov         rcx,rsi
  00000000100052BA: BA 13 00 00 00     mov         edx,13h
  00000000100052BF: FF 15 63 C7 FF FF  call        qword ptr [0000000010001A28h]
  00000000100052C5: 48 89 05 B4 C6 FF  mov         qword ptr [0000000010001980h],rax
                    FF
  00000000100052CC: 48 8B CE           mov         rcx,rsi
  00000000100052CF: BA 08 00 00 00     mov         edx,8
  00000000100052D4: FF 15 4E C7 FF FF  call        qword ptr [0000000010001A28h]
  00000000100052DA: 48 89 05 57 C6 FF  mov         qword ptr [0000000010001938h],rax
                    FF
  00000000100052E1: 48 8B CE           mov         rcx,rsi
  00000000100052E4: BA 01 00 00 00     mov         edx,1
  00000000100052E9: FF 15 39 C7 FF FF  call        qword ptr [0000000010001A28h]
  00000000100052EF: 48 89 05 82 C6 FF  mov         qword ptr [0000000010001978h],rax
                    FF
  00000000100052F6: E8 6A F9 FF FF     call        0000000010004C65
  00000000100052FB: B8 01 00 00 00     mov         eax,1
  0000000010005300: 48 83 C4 28        add         rsp,28h
  0000000010005304: 5F                 pop         rdi
  0000000010005305: 5E                 pop         rsi
  0000000010005306: C3                 ret

RAW DATA #2
  0000000010003000: 55 48 8B EC 48 83 EC 20 48 8D 0D 39 FD FF FF 48  UH.?H.? H..9?ÿÿH
  0000000010003010: 8B 15 62 E9 FF FF FF 15 64 E9 FF FF 48 83 C4 20  ..béÿÿÿ.déÿÿH.Ä 
  0000000010003020: C9 C3 55 48 8B EC 48 83 EC 10 48 89 4D 10 48 89  É?UH.?H.?.H.M.H.
  0000000010003030: 55 18 48 83 EC 20 E8 C5 FF FF FF 48 83 C4 20 48  U.H.? èÅÿÿÿH.Ä H
  0000000010003040: 89 45 F8 48 8B 45 F8 48 8B 0D 02 FD FF FF 48 3B  .EøH.EøH...?ÿÿH;
  0000000010003050: C1 0F 8E 83 00 00 00 48 8B 05 02 FD FF FF 48 83  Á......H...?ÿÿH.
  0000000010003060: F8 19 0F 8D 72 00 00 00 48 83 EC 20 48 8D 0D E9  ø...r...H.? H..é
  0000000010003070: E8 FF FF BA 0A 00 00 00 FF 15 F2 E8 FF FF 48 83  èÿÿº....ÿ.?èÿÿH.
  0000000010003080: C4 20 48 83 EC 20 48 8B 4D F8 FF 15 C0 E8 FF FF  Ä H.? H.Møÿ.Àèÿÿ
  0000000010003090: 48 83 C4 20 48 83 EC 20 48 8D 0D AB E8 FF FF BA  H.Ä H.? H..«èÿÿº
  00000000100030A0: 03 00 00 00 FF 15 C6 E8 FF FF 48 83 C4 20 48 83  ....ÿ.ÆèÿÿH.Ä H.
  00000000100030B0: EC 20 48 8B 4D 10 48 8B 55 18 FF 15 B0 E8 FF FF  ? H.M.H.U.ÿ.°èÿÿ
  00000000100030C0: 48 83 C4 20 48 83 EC 20 FF 15 72 E8 FF FF 48 83  H.Ä H.? ÿ.rèÿÿH.
  00000000100030D0: C4 20 48 83 05 86 FC FF FF 01 48 8B 45 F8 48 83  Ä H...üÿÿ.H.EøH.
  00000000100030E0: C0 04 0F 80 05 00 00 00 E9 08 00 00 00 B0 06 B9  À.......é....°.¹
  00000000100030F0: EE 0A 00 00 CC 48 89 05 54 FC FF FF C9 C3 55 48  î...?H..TüÿÿÉ?UH
  0000000010003100: 8B EC 48 83 EC 10 48 B8 FF FF FF FF FF FF FF FF  .?H.?.H¸ÿÿÿÿÿÿÿÿ
  0000000010003110: 48 89 45 F8 48 83 EC 20 48 8D 0D 29 FC FF FF 48  H.EøH.? H..)üÿÿH
  0000000010003120: 8B 15 52 E8 FF FF 4C 8D 45 F8 FF 15 08 E8 FF FF  ..RèÿÿL.Eøÿ..èÿÿ
  0000000010003130: 48 83 C4 20 48 8B 45 F8 48 83 F8 FF 0F 85 19 00  H.Ä H.EøH.øÿ....
  0000000010003140: 00 00 B8 01 00 00 00 88 05 10 FC FF FF 31 C0 66  ..¸.......üÿÿ1Àf
  0000000010003150: 89 05 08 FC FF FF E9 0B 00 00 00 48 8B 45 F8 66  ...üÿÿé....H.Eøf
  0000000010003160: 89 05 F8 FB FF FF C9 C3 55 48 8B EC 48 83 EC 10  ..øûÿÿÉ?UH.?H.?.
  0000000010003170: 56 57 48 89 4D 10 31 C0 48 89 45 F8 48 8B 45 F8  VWH.M.1ÀH.EøH.Eø
  0000000010003180: 48 83 F8 3F 0F 8D 38 00 00 00 48 8B 45 F8 48 83  H.ø?..8...H.EøH.
  0000000010003190: F8 40 0F 83 05 00 00 00 E9 08 00 00 00 B0 01 B9  ø@......é....°.¹
  00000000100031A0: 13 0C 00 00 CC 48 C1 E0 01 48 8D 0D BC FD FF FF  ....?HÁà.H..¼?ÿÿ
  00000000100031B0: 48 03 C1 0F B7 0D A4 FB FF FF 66 89 08 48 83 45  H.Á.·.¤ûÿÿf..H.E
  00000000100031C0: F8 01 48 83 EC 20 E8 33 FF FF FF 48 83 C4 20 0F  ø.H.? è3ÿÿÿH.Ä .
  00000000100031D0: B7 05 88 FB FF FF 48 83 F8 30 0F 82 66 00 00 00  ·..ûÿÿH.ø0..f...
  00000000100031E0: 0F B7 05 77 FB FF FF 48 83 F8 39 0F 86 11 00 00  .·.wûÿÿH.ø9.....
  00000000100031F0: 00 0F B7 05 66 FB FF FF 48 83 F8 41 0F 82 44 00  ..·.fûÿÿH.øA..D.
  0000000010003200: 00 00 0F B7 05 55 FB FF FF 48 83 F8 5F 0F 84 22  ...·.UûÿÿH.ø_.."
  0000000010003210: 00 00 00 0F B7 05 44 FB FF FF 48 83 F8 5A 0F 86  ....·.DûÿÿH.øZ..
  0000000010003220: 11 00 00 00 0F B7 05 33 FB FF FF 48 83 F8 61 0F  .....·.3ûÿÿH.øa.
  0000000010003230: 82 11 00 00 00 0F B7 05 22 FB FF FF 48 83 F8 7A  ......·."ûÿÿH.øz
  0000000010003240: 0F 86 36 FF FF FF 48 8B 45 F8 48 83 F8 40 0F 83  ..6ÿÿÿH.EøH.ø@..
  0000000010003250: 05 00 00 00 E9 08 00 00 00 B0 01 B9 9B 0C 00 00  ....é....°.¹....
  0000000010003260: CC 48 C1 E0 01 48 8D 0D 00 FD FF FF 48 03 C1 31  ?HÁà.H...?ÿÿH.Á1
  0000000010003270: C9 66 89 08 48 8B 45 F8 48 83 F8 0A 0F 8D A3 01  Éf..H.EøH.ø...£.
  0000000010003280: 00 00 48 8B 45 F8 48 83 E8 01 0F 80 05 00 00 00  ..H.EøH.è.......
  0000000010003290: E9 08 00 00 00 B0 06 B9 C3 0C 00 00 CC 48 83 F8  é....°.¹?...?H.ø
  00000000100032A0: 0A 0F 83 05 00 00 00 E9 08 00 00 00 B0 01 B9 C3  .......é....°.¹?
  00000000100032B0: 0C 00 00 CC 48 C1 E0 03 48 8D 0D 31 FA FF FF 48  ...?HÁà.H..1úÿÿH
  00000000100032C0: 03 C1 48 8B 00 48 89 45 F0 48 8B 45 F0 48 83 F8  .ÁH..H.E?H.E?H.ø
  00000000100032D0: 23 0F 83 05 00 00 00 E9 08 00 00 00 B0 01 B9 F8  #......é....°.¹ø
  00000000100032E0: 0C 00 00 CC 48 69 C0 88 00 00 00 48 8D 0D 66 E7  ...?HiÀ....H..fç
  00000000100032F0: FF FF 48 03 C1 48 8D 3D 70 FC FF FF 48 8B F0 48  ÿÿH.ÁH.=püÿÿH.?H
  0000000010003300: 83 C6 08 33 C9 48 83 F9 40 0F 84 3A 00 00 00 66  .Æ.3ÉH.ù@..:...f
  0000000010003310: 83 3E 00 0F 84 30 00 00 00 48 83 F9 40 0F 84 3A  .>...0...H.ù@..:
  0000000010003320: 00 00 00 66 8B 17 66 85 D2 0F 84 2E 00 00 00 66  ...f..f.?......f
  0000000010003330: 3B 16 0F 85 25 00 00 00 48 83 C7 02 48 83 C6 02  ;...%...H.Ç.H.Æ.
  0000000010003340: 48 83 C1 01 E9 BC FF FF FF 48 83 F9 40 0F 84 4D  H.Á.é¼ÿÿÿH.ù@..M
  0000000010003350: 00 00 00 66 83 3F 00 0F 84 43 00 00 00 48 8B 45  ...f.?...C...H.E
  0000000010003360: F0 48 8B 4D F8 48 83 F9 0A 0F 83 05 00 00 00 E9  ?H.MøH.ù.......é
  0000000010003370: 08 00 00 00 B0 01 B9 0B 0D 00 00 CC 48 C1 E1 03  ....°.¹....?HÁá.
  0000000010003380: 48 8D 15 69 F9 FF FF 48 03 CA 48 8B 09 48 3B C1  H..iùÿÿH.ÊH..H;Á
  0000000010003390: 0F 8D 0A 00 00 00 48 83 45 F0 01 E9 29 FF FF FF  ......H.E?.é)ÿÿÿ
  00000000100033A0: 48 8B 45 F0 48 8B 4D F8 48 83 F9 0A 0F 83 05 00  H.E?H.MøH.ù.....
  00000000100033B0: 00 00 E9 08 00 00 00 B0 01 B9 2E 0D 00 00 CC 48  ..é....°.¹....?H
  00000000100033C0: C1 E1 03 48 8D 15 26 F9 FF FF 48 03 CA 48 8B 09  Áá.H..&ùÿÿH.ÊH..
  00000000100033D0: 48 3B C1 0F 8D 3B 00 00 00 48 8B 45 F0 48 83 F8  H;Á..;...H.E?H.ø
  00000000100033E0: 23 0F 83 05 00 00 00 E9 08 00 00 00 B0 01 B9 45  #......é....°.¹E
  00000000100033F0: 0D 00 00 CC 48 69 C0 88 00 00 00 48 8D 0D 56 E6  ...?HiÀ....H..Væ
  0000000010003400: FF FF 48 03 C1 48 8B 00 48 8B 4D 10 48 89 01 E9  ÿÿH.ÁH..H.M.H..é
  0000000010003410: 0C 00 00 00 B8 1F 00 00 00 48 8B 4D 10 48 89 01  ....¸....H.M.H..
  0000000010003420: E9 0C 00 00 00 B8 1F 00 00 00 48 8B 4D 10 48 89  é....¸....H.M.H.
  0000000010003430: 01 5F 5E C9 C3 55 48 8B EC 48 83 EC 10 48 89 4D  ._^É?UH.?H.?.H.M
  0000000010003440: 10 31 C0 48 89 45 F8 48 83 EC 20 E8 AE FC FF FF  .1ÀH.EøH.? è®üÿÿ
  0000000010003450: 48 83 C4 20 0F B6 05 02 F9 FF FF 85 C0 0F 85 90  H.Ä .¶..ùÿÿ.À...
  0000000010003460: 00 00 00 0F B7 05 F4 F8 FF FF 0F B7 4D 10 48 3B  ....·.ôøÿÿ.·M.H;
  0000000010003470: C1 0F 84 7C 00 00 00 48 8B 45 F8 48 81 F8 FF 00  Á..|...H.EøH.øÿ.
  0000000010003480: 00 00 0F 8D 40 00 00 00 48 8B 45 F8 48 81 F8 00  ....@...H.EøH.ø.
  0000000010003490: 01 00 00 0F 83 05 00 00 00 E9 08 00 00 00 B0 01  .........é....°.
  00000000100034A0: B9 1E 0E 00 00 CC 48 C1 E0 01 48 8D 0D BB F8 FF  ¹....?HÁà.H..»øÿ
  00000000100034B0: FF 48 03 C1 0F B7 0D A3 F8 FF FF 66 89 08 48 83  ÿH.Á.·.£øÿÿf..H.
  00000000100034C0: 45 F8 01 E9 19 00 00 00 48 83 EC 20 48 8D 0D 29  Eø.é....H.? H..)
  00000000100034D0: E4 FF FF BA 10 00 00 00 E8 45 FB FF FF 48 83 C4  äÿÿº....èEûÿÿH.Ä
  00000000100034E0: 20 48 83 EC 20 E8 14 FC FF FF 48 83 C4 20 E9 61   H.? è.üÿÿH.Ä éa
  00000000100034F0: FF FF FF 48 8B 45 F8 48 81 F8 00 01 00 00 0F 83  ÿÿÿH.EøH.ø......
  0000000010003500: 05 00 00 00 E9 08 00 00 00 B0 01 B9 6C 0E 00 00  ....é....°.¹l...
  0000000010003510: CC 48 C1 E0 01 48 8D 0D 50 F8 FF FF 48 03 C1 31  ?HÁà.H..PøÿÿH.Á1
  0000000010003520: C9 66 89 08 48 83 EC 20 E8 D1 FB FF FF 48 83 C4  Éf..H.? èÑûÿÿH.Ä
  0000000010003530: 20 48 8B 45 F8 48 83 C0 01 0F 80 05 00 00 00 E9   H.EøH.À.......é
  0000000010003540: 08 00 00 00 B0 06 B9 8C 0E 00 00 CC 48 89 05 9D  ....°.¹....?H...
  0000000010003550: FA FF FF C9 C3 55 48 8B EC 48 83 EC 20 31 C0 48  úÿÿÉ?UH.?H.? 1ÀH
  0000000010003560: 89 45 F8 48 83 EC 20 E8 92 FB FF FF 48 83 C4 20  .EøH.? è.ûÿÿH.Ä 
  0000000010003570: 0F B6 05 E6 F7 FF FF 85 C0 0F 84 72 02 00 00 0F  .¶.æ÷ÿÿ.À..r....
  0000000010003580: B7 05 D8 F7 FF FF 48 83 F8 24 0F 84 61 02 00 00  ·.Ø÷ÿÿH.ø$..a...
  0000000010003590: 0F B7 05 C7 F7 FF FF 48 83 F8 20 0F 84 22 00 00  .·.Ç÷ÿÿH.ø .."..
  00000000100035A0: 00 0F B7 05 B6 F7 FF FF 48 83 F8 09 0F 84 11 00  ..·.¶÷ÿÿH.ø.....
  00000000100035B0: 00 00 0F B7 05 A5 F7 FF FF 48 83 F8 0D 0F 85 12  ...·.¥÷ÿÿH.ø....
  00000000100035C0: 00 00 00 48 83 EC 20 E8 32 FB FF FF 48 83 C4 20  ...H.? è2ûÿÿH.Ä 
  00000000100035D0: E9 BB FF FF FF 0F B7 05 82 F7 FF FF 48 83 F8 30  é»ÿÿÿ.·..÷ÿÿH.ø0
  00000000100035E0: 0F 82 38 00 00 00 0F B7 05 71 F7 FF FF 48 83 F8  ..8....·.q÷ÿÿH.ø
  00000000100035F0: 39 0F 87 27 00 00 00 0F B7 05 60 F7 FF FF 48 83  9..'....·.`÷ÿÿH.
  0000000010003600: E8 30 0F 80 05 00 00 00 E9 08 00 00 00 B0 06 B9  è0......é....°.¹
  0000000010003610: 79 0F 00 00 CC 48 89 45 F0 E9 68 00 00 00 0F B7  y...?H.E?éh....·
  0000000010003620: 05 39 F7 FF FF 48 83 F8 41 0F 82 38 00 00 00 0F  .9÷ÿÿH.øA..8....
  0000000010003630: B7 05 28 F7 FF FF 48 83 F8 46 0F 87 27 00 00 00  ·.(÷ÿÿH.øF..'...
  0000000010003640: 0F B7 05 17 F7 FF FF 48 83 E8 37 0F 80 05 00 00  .·..÷ÿÿH.è7.....
  0000000010003650: 00 E9 08 00 00 00 B0 06 B9 B3 0F 00 00 CC 48 89  .é....°.¹³...?H.
  0000000010003660: 45 F0 E9 1F 00 00 00 31 C0 48 89 45 F0 48 83 EC  E?é....1ÀH.E?H.?
  0000000010003670: 20 48 8D 0D 46 E2 FF FF BA 13 00 00 00 E8 A0 F9   H..Fâÿÿº....è.ù
  0000000010003680: FF FF 48 83 C4 20 48 83 EC 20 E8 6F FA FF FF 48  ÿÿH.Ä H.? èoúÿÿH
  0000000010003690: 83 C4 20 0F B7 05 C4 F6 FF FF 48 83 F8 30 0F 82  .Ä .·.ÄöÿÿH.ø0..
  00000000100036A0: 38 00 00 00 0F B7 05 B3 F6 FF FF 48 83 F8 39 0F  8....·.³öÿÿH.ø9.
  00000000100036B0: 87 27 00 00 00 0F B7 05 A2 F6 FF FF 48 83 E8 30  .'....·.¢öÿÿH.è0
  00000000100036C0: 0F 80 05 00 00 00 E9 08 00 00 00 B0 06 B9 28 10  ......é....°.¹(.
  00000000100036D0: 00 00 CC 48 89 45 E8 E9 68 00 00 00 0F B7 05 7B  ..?H.Eèéh....·.{
  00000000100036E0: F6 FF FF 48 83 F8 41 0F 82 38 00 00 00 0F B7 05  öÿÿH.øA..8....·.
  00000000100036F0: 6A F6 FF FF 48 83 F8 46 0F 87 27 00 00 00 0F B7  jöÿÿH.øF..'....·
  0000000010003700: 05 59 F6 FF FF 48 83 E8 37 0F 80 05 00 00 00 E9  .YöÿÿH.è7......é
  0000000010003710: 08 00 00 00 B0 06 B9 62 10 00 00 CC 48 89 45 E8  ....°.¹b...?H.Eè
  0000000010003720: E9 1F 00 00 00 31 C0 48 89 45 E8 48 83 EC 20 48  é....1ÀH.EèH.? H
  0000000010003730: 8D 0D 52 E1 FF FF BA 13 00 00 00 E8 E2 F8 FF FF  ..Ráÿÿº....èâøÿÿ
  0000000010003740: 48 83 C4 20 48 8B 45 F8 48 81 F8 FF 00 00 00 0F  H.Ä H.EøH.øÿ....
  0000000010003750: 8D 71 00 00 00 48 8B 45 F8 48 81 F8 00 01 00 00  .q...H.EøH.ø....
  0000000010003760: 0F 83 05 00 00 00 E9 08 00 00 00 B0 01 B9 B2 10  ......é....°.¹².
  0000000010003770: 00 00 CC 48 C1 E0 01 48 8D 0D EE F5 FF FF 48 03  ..?HÁà.H..î?ÿÿH.
  0000000010003780: C1 48 8B 4D F0 48 69 C9 10 00 00 00 0F 80 05 00  ÁH.M?HiÉ........
  0000000010003790: 00 00 E9 08 00 00 00 B0 06 B9 C1 10 00 00 CC 48  ..é....°.¹Á...?H
  00000000100037A0: 8B 55 E8 48 03 CA 0F 80 05 00 00 00 E9 08 00 00  .UèH.Ê......é...
  00000000100037B0: 00 B0 06 B9 C4 10 00 00 CC 66 89 08 48 83 45 F8  .°.¹Ä...?f..H.Eø
  00000000100037C0: 01 E9 19 00 00 00 48 83 EC 20 48 8D 0D 97 E0 FF  .é....H.? H...àÿ
  00000000100037D0: FF BA 10 00 00 00 E8 47 F8 FF FF 48 83 C4 20 48  ÿº....èGøÿÿH.Ä H
  00000000100037E0: 83 EC 20 E8 16 F9 FF FF 48 83 C4 20 E9 7F FD FF  .? è.ùÿÿH.Ä é.?ÿ
  00000000100037F0: FF 48 83 EC 20 E8 04 F9 FF FF 48 83 C4 20 48 8B  ÿH.? è.ùÿÿH.Ä H.
  0000000010003800: 45 F8 48 89 05 E7 F7 FF FF C9 C3 55 48 8B EC 48  EøH..ç÷ÿÿÉ?UH.?H
  0000000010003810: 83 EC 10 48 89 4D 10 B8 00 00 80 FF 66 0F 6E C0  .?.H.M.¸...ÿf.nÀ
  0000000010003820: F3 0F 11 45 FC B8 00 00 C0 FF 66 0F 6E C0 F3 0F  ó..Eü¸..Àÿf.nÀó.
  0000000010003830: 11 45 F8 48 8B 45 10 48 85 C0 0F 8E 45 00 00 00  .EøH.E.H.À..E...
  0000000010003840: 48 8B 45 10 48 83 E0 01 0F 84 13 00 00 00 F3 0F  H.E.H.à.......ó.
  0000000010003850: 10 45 F8 F3 0F 10 4D FC F3 0F 59 C1 F3 0F 11 45  .Eøó..Müó.YÁó..E
  0000000010003860: FC F3 0F 10 45 F8 F3 0F 10 4D F8 F3 0F 59 C1 F3  üó..Eøó..Møó.YÁó
  0000000010003870: 0F 11 45 F8 48 8B 45 10 48 C1 F8 01 48 89 45 10  ..EøH.E.HÁø.H.E.
  0000000010003880: E9 AE FF FF FF F3 0F 10 45 FC C9 C3 55 48 8B EC  é®ÿÿÿó..EüÉ?UH.?
  0000000010003890: 48 81 EC F0 00 00 00 48 89 4D 10 31 C0 48 89 05  H.??...H.M.1ÀH..
  00000000100038A0: 54 F7 FF FF 31 C0 48 89 45 F8 31 C0 48 89 45 E0  T÷ÿÿ1ÀH.Eø1ÀH.Eà
  00000000100038B0: 31 C0 48 89 45 F0 48 8B 45 E0 48 83 F8 15 0F 8D  1ÀH.E?H.EàH.ø...
  00000000100038C0: 51 00 00 00 48 8B 45 E0 48 83 F8 15 0F 83 05 00  Q...H.EàH.ø.....
  00000000100038D0: 00 00 E9 08 00 00 00 B0 01 B9 FD 12 00 00 CC 48  ..é....°.¹?...?H
  00000000100038E0: C1 E0 03 48 03 C5 0F B7 0D 71 F4 FF FF 48 83 E9  Áà.H.Å.·.qôÿÿH.é
  00000000100038F0: 30 0F 80 05 00 00 00 E9 08 00 00 00 B0 06 B9 0F  0......é....°.¹.
  0000000010003900: 13 00 00 CC 48 89 88 20 FF FF FF 48 83 45 E0 01  ...?H.. ÿÿÿH.Eà.
  0000000010003910: E9 1F 00 00 00 48 83 EC 20 48 8D 0D 28 DF FF FF  é....H.? H..(ßÿÿ
  0000000010003920: BA 10 00 00 00 E8 F8 F6 FF FF 48 83 C4 20 31 C0  º....èøöÿÿH.Ä 1À
  0000000010003930: 48 89 45 E0 48 83 EC 20 E8 C1 F7 FF FF 48 83 C4  H.EàH.? èÁ÷ÿÿH.Ä
  0000000010003940: 20 0F B7 05 16 F4 FF FF 48 83 F8 30 0F 82 33 00   .·..ôÿÿH.ø0..3.
  0000000010003950: 00 00 0F B7 05 05 F4 FF FF 48 83 F8 39 0F 86 11  ...·..ôÿÿH.ø9...
  0000000010003960: 00 00 00 0F B7 05 F4 F3 FF FF 48 83 F8 41 0F 82  ....·.ôóÿÿH.øA..
  0000000010003970: 11 00 00 00 0F B7 05 E3 F3 FF FF 48 83 F8 46 0F  .....·.?óÿÿH.øF.
  0000000010003980: 86 31 FF FF FF 0F B7 05 D2 F3 FF FF 48 83 F8 48  .1ÿÿÿ.·.?óÿÿH.øH
  0000000010003990: 0F 84 22 00 00 00 0F B7 05 C1 F3 FF FF 48 83 F8  .."....·.ÁóÿÿH.ø
  00000000100039A0: 52 0F 84 11 00 00 00 0F B7 05 B0 F3 FF FF 48 83  R.......·.°óÿÿH.
  00000000100039B0: F8 58 0F 85 69 01 00 00 48 8B 45 F8 48 83 F8 15  øX..i...H.EøH.ø.
  00000000100039C0: 0F 83 05 00 00 00 E9 08 00 00 00 B0 01 B9 E1 13  ......é....°.¹á.
  00000000100039D0: 00 00 CC 48 C1 E0 03 48 03 C5 48 8B 80 20 FF FF  ..?HÁà.H.ÅH.. ÿÿ
  00000000100039E0: FF 48 89 45 D0 48 8B 45 D0 48 83 F8 0A 0F 8C 1F  ÿH.E?H.E?H.ø....
  00000000100039F0: 00 00 00 48 8B 45 D0 48 83 E8 07 0F 80 05 00 00  ...H.E?H.è......
  0000000010003A00: 00 E9 08 00 00 00 B0 06 B9 03 14 00 00 CC 48 89  .é....°.¹....?H.
  0000000010003A10: 45 D0 48 8B 45 F0 48 69 C0 10 00 00 00 0F 80 05  E?H.E?HiÀ.......
  0000000010003A20: 00 00 00 E9 08 00 00 00 B0 06 B9 17 14 00 00 CC  ...é....°.¹....?
  0000000010003A30: 48 8B 4D D0 48 03 C1 0F 80 05 00 00 00 E9 08 00  H.M?H.Á......é..
  0000000010003A40: 00 00 B0 06 B9 1A 14 00 00 CC 48 89 45 F0 48 83  ..°.¹....?H.E?H.
  0000000010003A50: 45 F8 01 48 8B 45 F8 48 8B 4D E0 48 3B C1 0F 85  Eø.H.EøH.MàH;Á..
  0000000010003A60: 54 FF FF FF 0F B7 05 F3 F2 FF FF 48 83 F8 58 0F  Tÿÿÿ.·.ó?ÿÿH.øX.
  0000000010003A70: 85 54 00 00 00 B8 14 00 00 00 48 8B 4D 10 48 89  .T...¸....H.M.H.
  0000000010003A80: 01 48 8B 45 F0 48 81 F8 00 01 00 00 0F 8D 10 00  .H.E?H.ø........
  0000000010003A90: 00 00 48 8B 45 F0 48 89 05 5B F5 FF FF E9 22 00  ..H.E?H..[?ÿÿé".
  0000000010003AA0: 00 00 48 83 EC 20 48 8D 0D 5F DD FF FF BA 0E 00  ..H.? H.._?ÿÿº..
  0000000010003AB0: 00 00 E8 6B F5 FF FF 48 83 C4 20 31 C0 48 89 05  ..èk?ÿÿH.Ä 1ÀH..
  0000000010003AC0: 34 F5 FF FF E9 46 00 00 00 0F B7 05 8E F2 FF FF  4?ÿÿéF....·..?ÿÿ
  0000000010003AD0: 48 83 F8 52 0F 85 1E 00 00 00 B8 16 00 00 00 48  H.øR......¸....H
  0000000010003AE0: 8B 4D 10 48 89 01 F3 0F 10 45 F0 F3 0F 11 05 F9  .M.H..ó..E?ó...ù
  0000000010003AF0: F4 FF FF E9 17 00 00 00 B8 15 00 00 00 48 8B 4D  ôÿÿé....¸....H.M
  0000000010003B00: 10 48 89 01 48 8B 45 F0 48 89 05 E9 F4 FF FF 48  .H..H.E?H..éôÿÿH
  0000000010003B10: 83 EC 20 E8 E6 F5 FF FF 48 83 C4 20 E9 2D 07 00  .? èæ?ÿÿH.Ä é-..
  0000000010003B20: 00 0F B7 05 36 F2 FF FF 48 83 F8 2E 0F 85 65 05  ..·.6?ÿÿH.ø...e.
  0000000010003B30: 00 00 48 83 EC 20 E8 C3 F5 FF FF 48 83 C4 20 0F  ..H.? è??ÿÿH.Ä .
  0000000010003B40: B7 05 18 F2 FF FF 48 83 F8 2E 0F 85 A4 01 00 00  ·..?ÿÿH.ø...¤...
  0000000010003B50: B8 7F 00 00 00 66 89 05 02 F2 FF FF 48 8B 45 F8  ¸....f...?ÿÿH.Eø
  0000000010003B60: 48 83 F8 15 0F 83 05 00 00 00 E9 08 00 00 00 B0  H.ø.......é....°
  0000000010003B70: 01 B9 AB 15 00 00 CC 48 C1 E0 03 48 03 C5 48 8B  .¹«...?HÁà.H.ÅH.
  0000000010003B80: 80 20 FF FF FF 48 83 F8 0A 0F 8D 1A 01 00 00 48  . ÿÿÿH.ø.......H
  0000000010003B90: 8B 45 F0 48 8B 4D F8 48 83 F9 15 0F 83 05 00 00  .E?H.MøH.ù......
  0000000010003BA0: 00 E9 08 00 00 00 B0 01 B9 CE 15 00 00 CC 48 C1  .é....°.¹Î...?HÁ
  0000000010003BB0: E1 03 48 03 CD 48 BA FF FF FF FF FF FF FF 7F 48  á.H.ÍHºÿÿÿÿÿÿÿ.H
  0000000010003BC0: 8B 89 20 FF FF FF 48 87 D1 48 2B CA 0F 80 05 00  .. ÿÿÿH.ÑH+Ê....
  0000000010003BD0: 00 00 E9 08 00 00 00 B0 06 B9 CF 15 00 00 CC BA  ..é....°.¹Ï...?º
  0000000010003BE0: 0A 00 00 00 4C 8B C0 4C 8B CA 48 8B C1 48 99 48  ....L.ÀL.ÊH.ÁH.H
  0000000010003BF0: 85 C0 0F 88 08 00 00 00 49 F7 F9 E9 10 00 00 00  .À......I÷ùé....
  0000000010003C00: 49 F7 F9 48 85 D2 0F 84 04 00 00 00 48 83 E8 01  I÷ùH.?......H.è.
  0000000010003C10: 48 8B C8 49 8B C0 48 3B C1 0F 8F 66 00 00 00 48  H.ÈI.ÀH;Á..f...H
  0000000010003C20: 8B 45 F0 48 69 C0 0A 00 00 00 0F 80 05 00 00 00  .E?HiÀ..........
  0000000010003C30: E9 08 00 00 00 B0 06 B9 EA 15 00 00 CC 48 8B 4D  é....°.¹ê...?H.M
  0000000010003C40: F8 48 83 F9 15 0F 83 05 00 00 00 E9 08 00 00 00  øH.ù.......é....
  0000000010003C50: B0 01 B9 EF 15 00 00 CC 48 C1 E1 03 48 03 CD 48  °.¹ï...?HÁá.H.ÍH
  0000000010003C60: 8B 89 20 FF FF FF 48 03 C1 0F 80 05 00 00 00 E9  .. ÿÿÿH.Á......é
  0000000010003C70: 08 00 00 00 B0 06 B9 FA 15 00 00 CC 48 89 45 F0  ....°.¹ú...?H.E?
  0000000010003C80: E9 1F 00 00 00 48 83 EC 20 48 8D 0D 5C DB FF FF  é....H.? H..\Ûÿÿ
  0000000010003C90: BA 0A 00 00 00 E8 88 F3 FF FF 48 83 C4 20 31 C0  º....è.óÿÿH.Ä 1À
  0000000010003CA0: 48 89 45 F0 E9 19 00 00 00 48 83 EC 20 48 8D 0D  H.E?é....H.? H..
  0000000010003CB0: 20 DB FF FF BA 0C 00 00 00 E8 64 F3 FF FF 48 83   Ûÿÿº....èdóÿÿH.
  0000000010003CC0: C4 20 48 83 45 F8 01 48 8B 45 F8 48 8B 4D E0 48  Ä H.Eø.H.EøH.MàH
  0000000010003CD0: 3B C1 0F 85 84 FE FF FF B8 15 00 00 00 48 8B 4D  ;Á...?ÿÿ¸....H.M
  0000000010003CE0: 10 48 89 01 48 8B 45 F0 48 89 05 09 F3 FF FF E9  .H..H.E?H...óÿÿé
  0000000010003CF0: 9E 03 00 00 B8 00 00 C0 FF 66 0F 6E C0 F3 0F 11  ....¸..Àÿf.nÀó..
  0000000010003D00: 45 CC 31 C0 48 89 45 E8 F3 0F 10 45 CC B8 00 00  E?1ÀH.Eèó..E?¸..
  0000000010003D10: C0 FF 66 0F 6E C8 F3 0F 59 C1 48 8B 45 F8 48 83  Àÿf.nÈó.YÁH.EøH.
  0000000010003D20: F8 15 0F 83 05 00 00 00 E9 08 00 00 00 B0 01 B9  ø.......é....°.¹
  0000000010003D30: E2 16 00 00 CC 48 C1 E0 03 48 03 C5 48 8B 80 20  â...?HÁà.H.ÅH.. 
  0000000010003D40: FF FF FF F3 48 0F 2A C8 F3 0F 58 C1 F3 0F 11 45  ÿÿÿóH.*Èó.XÁó..E
  0000000010003D50: CC 48 83 45 F8 01 48 8B 45 F8 48 8B 4D E0 48 3B  ?H.Eø.H.EøH.MàH;
  0000000010003D60: C1 0F 85 A1 FF FF FF 0F B7 05 F0 EF FF FF 48 83  Á..¡ÿÿÿ.·.?ïÿÿH.
  0000000010003D70: F8 30 0F 82 66 00 00 00 0F B7 05 DF EF FF FF 48  ø0..f....·.ßïÿÿH
  0000000010003D80: 83 F8 39 0F 87 55 00 00 00 F3 0F 10 45 CC B8 00  .ø9..U...ó..E?¸.
  0000000010003D90: 00 C0 FF 66 0F 6E C8 F3 0F 59 C1 0F B7 05 BC EF  .Àÿf.nÈó.YÁ.·.¼ï
  0000000010003DA0: FF FF 48 83 E8 30 0F 80 05 00 00 00 E9 08 00 00  ÿÿH.è0......é...
  0000000010003DB0: 00 B0 06 B9 5A 17 00 00 CC F3 48 0F 2A C8 F3 0F  .°.¹Z...?óH.*Èó.
  0000000010003DC0: 58 C1 F3 0F 11 45 CC 48 83 45 E8 FF 48 83 EC 20  XÁó..E?H.EèÿH.? 
  0000000010003DD0: E8 29 F3 FF FF 48 83 C4 20 E9 89 FF FF FF 0F B7  è)óÿÿH.Ä é.ÿÿÿ.·
  0000000010003DE0: 05 79 EF FF FF 48 83 F8 45 0F 84 11 00 00 00 0F  .yïÿÿH.øE.......
  0000000010003DF0: B7 05 68 EF FF FF 48 83 F8 44 0F 85 84 01 00 00  ·.hïÿÿH.øD......
  0000000010003E00: 48 83 EC 20 E8 F5 F2 FF FF 48 83 C4 20 31 C0 48  H.? è??ÿÿH.Ä 1ÀH
  0000000010003E10: 89 45 D8 0F B7 05 44 EF FF FF 48 83 F8 2D 0F 85  .EØ.·.DïÿÿH.ø-..
  0000000010003E20: 1D 00 00 00 B8 01 00 00 00 88 85 1F FF FF FF 48  ....¸.......ÿÿÿH
  0000000010003E30: 83 EC 20 E8 C6 F2 FF FF 48 83 C4 20 E9 26 00 00  .? èÆ?ÿÿH.Ä é&..
  0000000010003E40: 00 31 C0 88 85 1F FF FF FF 0F B7 05 0E EF FF FF  .1À...ÿÿÿ.·..ïÿÿ
  0000000010003E50: 48 83 F8 2B 0F 85 0D 00 00 00 48 83 EC 20 E8 9B  H.ø+......H.? è.
  0000000010003E60: F2 FF FF 48 83 C4 20 0F B7 05 F0 EE FF FF 48 83  ?ÿÿH.Ä .·.?îÿÿH.
  0000000010003E70: F8 30 0F 82 F3 00 00 00 0F B7 05 DF EE FF FF 48  ø0..ó....·.ßîÿÿH
  0000000010003E80: 83 F8 39 0F 87 E2 00 00 00 48 8B 45 D8 48 69 C0  .ø9..â...H.EØHiÀ
  0000000010003E90: 0A 00 00 00 0F 80 05 00 00 00 E9 08 00 00 00 B0  ..........é....°
  0000000010003EA0: 06 B9 63 18 00 00 CC 0F B7 0D B0 EE FF FF 48 03  .¹c...?.·.°îÿÿH.
  0000000010003EB0: C1 0F 80 05 00 00 00 E9 08 00 00 00 B0 06 B9 6C  Á......é....°.¹l
  0000000010003EC0: 18 00 00 CC 48 83 E8 30 0F 80 05 00 00 00 E9 08  ...?H.è0......é.
  0000000010003ED0: 00 00 00 B0 06 B9 70 18 00 00 CC 48 89 45 D8 48  ...°.¹p...?H.EØH
  0000000010003EE0: 83 EC 20 E8 16 F2 FF FF 48 83 C4 20 0F B7 05 6B  .? è.?ÿÿH.Ä .·.k
  0000000010003EF0: EE FF FF 48 83 F8 30 0F 82 11 00 00 00 0F B7 05  îÿÿH.ø0.......·.
  0000000010003F00: 5A EE FF FF 48 83 F8 39 0F 86 7B FF FF FF 0F B6  ZîÿÿH.ø9..{ÿÿÿ.¶
  0000000010003F10: 85 1F FF FF FF 85 C0 0F 84 27 00 00 00 48 8B 45  ..ÿÿÿ.À..'...H.E
  0000000010003F20: E8 48 8B 4D D8 48 2B C1 0F 80 05 00 00 00 E9 08  èH.MØH+Á......é.
  0000000010003F30: 00 00 00 B0 06 B9 BC 18 00 00 CC 48 89 45 E8 E9  ...°.¹¼...?H.Eèé
  0000000010003F40: 22 00 00 00 48 8B 45 E8 48 8B 4D D8 48 03 C1 0F  "...H.EèH.MØH.Á.
  0000000010003F50: 80 05 00 00 00 E9 08 00 00 00 B0 06 B9 CF 18 00  .....é....°.¹Ï..
  0000000010003F60: 00 CC 48 89 45 E8 E9 19 00 00 00 48 83 EC 20 48  .?H.Eèé....H.? H
  0000000010003F70: 8D 0D 28 D8 FF FF BA 07 00 00 00 E8 A2 F0 FF FF  ..(Øÿÿº....è¢?ÿÿ
  0000000010003F80: 48 83 C4 20 48 8B 45 E8 48 85 C0 0F 8D 71 00 00  H.Ä H.EèH.À..q..
  0000000010003F90: 00 48 8B 45 E8 48 83 F8 DA 0F 8C 50 00 00 00 F3  .H.EèH.øÚ..P...ó
  0000000010003FA0: 0F 10 45 CC 48 83 EC 08 F3 0F 11 04 24 48 83 EC  ..E?H.?.ó...$H.?
  0000000010003FB0: 28 48 8B 4D E8 48 F7 D9 0F 80 05 00 00 00 E9 08  (H.MèH÷Ù......é.
  0000000010003FC0: 00 00 00 B0 06 B9 37 19 00 00 CC E8 3B F8 FF FF  ...°.¹7...?è;øÿÿ
  0000000010003FD0: 48 83 C4 28 F3 0F 10 C8 F3 0F 10 04 24 48 83 C4  H.Ä(ó..Èó...$H.Ä
  0000000010003FE0: 08 F3 0F 5E C1 F3 0F 11 45 CC E9 0E 00 00 00 B8  .ó.^Áó..E?é....¸
  0000000010003FF0: 00 00 C0 FF 66 0F 6E C0 F3 0F 11 45 CC E9 66 00  ..Àÿf.nÀó..E?éf.
  0000000010004000: 00 00 48 8B 45 E8 48 85 C0 0F 8E 59 00 00 00 48  ..H.EèH.À..Y...H
  0000000010004010: 8B 45 E8 48 83 F8 26 0F 8F 24 00 00 00 48 83 EC  .EèH.ø&..$...H.?
  0000000010004020: 20 48 8B 4D E8 E8 E1 F7 FF FF 48 83 C4 20 F3 0F   H.Mèèá÷ÿÿH.Ä ó.
  0000000010004030: 10 4D CC F3 0F 59 C1 F3 0F 11 45 CC E9 27 00 00  .M?ó.YÁó..E?é'..
  0000000010004040: 00 B8 00 00 C0 FF 66 0F 6E C0 F3 0F 11 45 CC 48  .¸..Àÿf.nÀó..E?H
  0000000010004050: 83 EC 20 48 8D 0D 30 D7 FF FF BA 0A 00 00 00 E8  .? H..0×ÿÿº....è
  0000000010004060: BE EF FF FF 48 83 C4 20 B8 16 00 00 00 48 8B 4D  ¾ïÿÿH.Ä ¸....H.M
  0000000010004070: 10 48 89 01 F3 0F 10 45 CC F3 0F 11 05 6B EF FF  .H..ó..E?ó...kïÿ
  0000000010004080: FF F3 0F 10 45 CC 66 48 0F 7E C0 48 89 05 66 EF  ÿó..E?fH.~ÀH..fï
  0000000010004090: FF FF E9 B7 01 00 00 48 8B 45 F8 48 83 F8 15 0F  ÿÿé·...H.EøH.ø..
  00000000100040A0: 83 05 00 00 00 E9 08 00 00 00 B0 01 B9 38 1A 00  .....é....°.¹8..
  00000000100040B0: 00 CC 48 C1 E0 03 48 03 C5 48 8B 80 20 FF FF FF  .?HÁà.H.ÅH.. ÿÿÿ
  00000000100040C0: 48 83 F8 0A 0F 8D 2C 01 00 00 48 8B 45 F0 48 8B  H.ø...,...H.E?H.
  00000000100040D0: 4D F8 48 83 F9 15 0F 83 05 00 00 00 E9 08 00 00  MøH.ù.......é...
  00000000100040E0: 00 B0 01 B9 5A 1A 00 00 CC 48 C1 E1 03 48 03 CD  .°.¹Z...?HÁá.H.Í
  00000000100040F0: 48 BA FF FF FF FF FF FF FF 7F 48 8B 89 20 FF FF  Hºÿÿÿÿÿÿÿ.H.. ÿÿ
  0000000010004100: FF 48 87 D1 48 2B CA 0F 80 05 00 00 00 E9 08 00  ÿH.ÑH+Ê......é..
  0000000010004110: 00 00 B0 06 B9 5B 1A 00 00 CC BA 0A 00 00 00 4C  ..°.¹[...?º....L
  0000000010004120: 8B C0 4C 8B CA 48 8B C1 48 99 48 85 C0 0F 88 08  .ÀL.ÊH.ÁH.H.À...
  0000000010004130: 00 00 00 49 F7 F9 E9 10 00 00 00 49 F7 F9 48 85  ...I÷ùé....I÷ùH.
  0000000010004140: D2 0F 84 04 00 00 00 48 83 E8 01 48 8B C8 49 8B  ?......H.è.H.ÈI.
  0000000010004150: C0 48 3B C1 0F 8F 66 00 00 00 48 8B 45 F0 48 69  ÀH;Á..f...H.E?Hi
  0000000010004160: C0 0A 00 00 00 0F 80 05 00 00 00 E9 08 00 00 00  À..........é....
  0000000010004170: B0 06 B9 75 1A 00 00 CC 48 8B 4D F8 48 83 F9 15  °.¹u...?H.MøH.ù.
  0000000010004180: 0F 83 05 00 00 00 E9 08 00 00 00 B0 01 B9 7A 1A  ......é....°.¹z.
  0000000010004190: 00 00 CC 48 C1 E1 03 48 03 CD 48 8B 89 20 FF FF  ..?HÁá.H.ÍH.. ÿÿ
  00000000100041A0: FF 48 03 C1 0F 80 05 00 00 00 E9 08 00 00 00 B0  ÿH.Á......é....°
  00000000100041B0: 06 B9 84 1A 00 00 CC 48 89 45 F0 E9 31 00 00 00  .¹....?H.E?é1...
  00000000100041C0: 48 83 EC 08 F3 0F 11 04 24 48 83 EC 28 48 8D 0D  H.?.ó...$H.?(H..
  00000000100041D0: A2 D5 FF FF BA 0A 00 00 00 E8 44 EE FF FF 48 83  ¢?ÿÿº....èDîÿÿH.
  00000000100041E0: C4 28 F3 0F 10 04 24 48 83 C4 08 31 C0 48 89 45  Ä(ó...$H.Ä.1ÀH.E
  00000000100041F0: F0 E9 2B 00 00 00 48 83 EC 08 F3 0F 11 04 24 48  ?é+...H.?.ó...$H
  0000000010004200: 83 EC 28 48 8D 0D 54 D5 FF FF BA 0C 00 00 00 E8  .?(H..T?ÿÿº....è
  0000000010004210: 0E EE FF FF 48 83 C4 28 F3 0F 10 04 24 48 83 C4  .îÿÿH.Ä(ó...$H.Ä
  0000000010004220: 08 48 83 45 F8 01 48 8B 45 F8 48 8B 4D E0 48 3B  .H.Eø.H.EøH.MàH;
  0000000010004230: C1 0F 85 60 FE FF FF B8 15 00 00 00 48 8B 4D 10  Á..`?ÿÿ¸....H.M.
  0000000010004240: 48 89 01 48 8B 45 F0 48 89 05 AA ED FF FF C9 C3  H..H.E?H..ªíÿÿÉ?
  0000000010004250: E9 71 13 00 00 55 48 8B EC 48 81 EC 10 02 00 00  éq...UH.?H.?....
  0000000010004260: 48 83 EC 20 E8 95 EE FF FF 48 83 C4 20 31 C0 48  H.? è.îÿÿH.Ä 1ÀH
  0000000010004270: 89 85 F8 FD FF FF 48 8B 85 F8 FD FF FF 48 81 F8  ..ø?ÿÿH..ø?ÿÿH.ø
  0000000010004280: FF 00 00 00 0F 8D 70 00 00 00 0F B7 05 CD EA FF  ÿ.....p....·.Íêÿ
  0000000010004290: FF 48 83 F8 2A 0F 84 5F 00 00 00 0F B6 05 BB EA  ÿH.ø*.._....¶.»ê
  00000000100042A0: FF FF 85 C0 0F 85 50 00 00 00 48 8B 85 F8 FD FF  ÿÿ.À..P...H..ø?ÿ
  00000000100042B0: FF 48 81 F8 00 01 00 00 0F 83 05 00 00 00 E9 08  ÿH.ø..........é.
  00000000100042C0: 00 00 00 B0 01 B9 F9 1B 00 00 CC 48 C1 E0 01 48  ...°.¹ù...?HÁà.H
  00000000100042D0: 03 C5 0F B7 0D 85 EA FF FF 66 89 88 00 FE FF FF  .Å.·..êÿÿf...?ÿÿ
  00000000100042E0: 48 83 EC 20 E8 15 EE FF FF 48 83 C4 20 48 83 85  H.? è.îÿÿH.Ä H..
  00000000100042F0: F8 FD FF FF 01 E9 7C FF FF FF 48 8B 85 F8 FD FF  ø?ÿÿ.é|ÿÿÿH..ø?ÿ
  0000000010004300: FF 48 81 F8 00 01 00 00 0F 83 05 00 00 00 E9 08  ÿH.ø..........é.
  0000000010004310: 00 00 00 B0 01 B9 23 1C 00 00 CC 48 C1 E0 01 48  ...°.¹#...?HÁà.H
  0000000010004320: 03 C5 31 C9 66 89 88 00 FE FF FF 0F B7 05 2C EA  .Å1Éf...?ÿÿ.·.,ê
  0000000010004330: FF FF 48 83 F8 2A 0F 85 1F 00 00 00 48 83 EC 20  ÿÿH.ø*......H.? 
  0000000010004340: 48 8D 8D 00 FE FF FF BA 00 01 00 00 FF 15 F6 D3  H...?ÿÿº....ÿ.öÓ
  0000000010004350: FF FF 48 83 C4 20 E9 19 00 00 00 48 83 EC 20 48  ÿÿH.Ä é....H.? H
  0000000010004360: 8D 0D B0 D3 FF FF BA 19 00 00 00 E8 B2 EC FF FF  ..°Óÿÿº....è²?ÿÿ
  0000000010004370: 48 83 C4 20 C9 C3 55 48 8B EC 48 83 EC 10 48 89  H.Ä É?UH.?H.?.H.
  0000000010004380: 4D 10 0F B7 05 D5 E9 FF FF 48 83 F8 24 0F 85 1A  M..·.?éÿÿH.ø$...
  0000000010004390: 00 00 00 48 8B 45 10 48 85 C0 0F 85 0D 00 00 00  ...H.E.H.À......
  00000000100043A0: 48 83 EC 20 E8 AC FE FF FF 48 83 C4 20 31 C0 88  H.? è¬?ÿÿH.Ä 1À.
  00000000100043B0: 45 FF 0F B6 05 A4 E9 FF FF 85 C0 0F 85 D0 00 00  Eÿ.¶.¤éÿÿ.À..?..
  00000000100043C0: 00 0F B6 45 FF 85 C0 0F 85 C4 00 00 00 0F B7 05  ..¶Eÿ.À..Ä....·.
  00000000100043D0: 8A E9 FF FF 48 83 F8 28 0F 85 58 00 00 00 48 83  .éÿÿH.ø(..X...H.
  00000000100043E0: EC 20 E8 17 ED FF FF 48 83 C4 20 0F B7 05 6C E9  ? è.íÿÿH.Ä .·.lé
  00000000100043F0: FF FF 48 83 F8 2A 0F 85 35 00 00 00 48 83 EC 20  ÿÿH.ø*..5...H.? 
  0000000010004400: E8 F9 EC FF FF 48 83 C4 20 48 83 EC 20 48 8B 4D  èù?ÿÿH.Ä H.? H.M
  0000000010004410: 10 48 83 C1 01 0F 80 05 00 00 00 E9 08 00 00 00  .H.Á.......é....
  0000000010004420: B0 06 B9 4C 1D 00 00 CC E8 49 FF FF FF 48 83 C4  °.¹L...?èIÿÿÿH.Ä
  0000000010004430: 20 E9 56 00 00 00 0F B7 05 21 E9 FF FF 48 83 F8   éV....·.!éÿÿH.ø
  0000000010004440: 2A 0F 85 38 00 00 00 48 83 EC 20 E8 AE EC FF FF  *..8...H.? è®?ÿÿ
  0000000010004450: 48 83 C4 20 0F B7 05 03 E9 FF FF 48 83 F8 29 0F  H.Ä .·..éÿÿH.ø).
  0000000010004460: 85 15 00 00 00 48 83 EC 20 E8 90 EC FF FF 48 83  .....H.? è.?ÿÿH.
  0000000010004470: C4 20 B8 01 00 00 00 88 45 FF E9 0D 00 00 00 48  Ä ¸.....Eÿé....H
  0000000010004480: 83 EC 20 E8 76 EC FF FF 48 83 C4 20 E9 21 FF FF  .? èv?ÿÿH.Ä é!ÿÿ
  0000000010004490: FF C9 C3 55 48 8B EC 48 89 4D 10 0F B6 05 BB E8  ÿÉ?UH.?H.M..¶.»è
  00000000100044A0: FF FF 85 C0 0F 85 23 00 00 00 0F B7 05 AD E8 FF  ÿÿ.À..#....·.­èÿ
  00000000100044B0: FF 48 83 F8 20 0F 87 12 00 00 00 48 83 EC 20 E8  ÿH.ø ......H.? è
  00000000100044C0: 3A EC FF FF 48 83 C4 20 E9 CE FF FF FF 0F B7 05  :?ÿÿH.Ä éÎÿÿÿ.·.
  00000000100044D0: 8A E8 FF FF 48 83 F8 41 0F 83 9C 04 00 00 0F B7  .èÿÿH.øA.......·
  00000000100044E0: 05 79 E8 FF FF 48 83 F8 30 0F 83 D1 02 00 00 0F  .yèÿÿH.ø0..Ñ....
  00000000100044F0: B7 05 68 E8 FF FF 48 83 F8 22 0F 84 11 00 00 00  ·.hèÿÿH.ø"......
  0000000010004500: 0F B7 05 57 E8 FF FF 48 83 F8 27 0F 85 25 00 00  .·.WèÿÿH.ø'..%..
  0000000010004510: 00 48 83 EC 20 0F B7 0D 42 E8 FF FF E8 14 EF FF  .H.? .·.Bèÿÿè.ïÿ
  0000000010004520: FF 48 83 C4 20 B8 1A 00 00 00 48 8B 4D 10 48 89  ÿH.Ä ¸....H.M.H.
  0000000010004530: 01 E9 85 02 00 00 0F B7 05 21 E8 FF FF 48 83 F8  .é.....·.!èÿÿH.ø
  0000000010004540: 23 0F 85 1E 00 00 00 48 83 EC 20 E8 AE EB FF FF  #......H.? è®ëÿÿ
  0000000010004550: 48 83 C4 20 B8 0A 00 00 00 48 8B 4D 10 48 89 01  H.Ä ¸....H.M.H..
  0000000010004560: E9 56 02 00 00 0F B7 05 F2 E7 FF FF 48 83 F8 24  éV....·.?çÿÿH.ø$
  0000000010004570: 0F 85 1E 00 00 00 48 83 EC 20 E8 D6 EF FF FF 48  ......H.? èÖïÿÿH
  0000000010004580: 83 C4 20 B8 1A 00 00 00 48 8B 4D 10 48 89 01 E9  .Ä ¸....H.M.H..é
  0000000010004590: 27 02 00 00 0F B7 05 C3 E7 FF FF 48 83 F8 26 0F  '....·.?çÿÿH.ø&.
  00000000100045A0: 85 1E 00 00 00 48 83 EC 20 E8 50 EB FF FF 48 83  .....H.? èPëÿÿH.
  00000000100045B0: C4 20 B8 05 00 00 00 48 8B 4D 10 48 89 01 E9 F8  Ä ¸....H.M.H..éø
  00000000100045C0: 01 00 00 0F B7 05 94 E7 FF FF 48 83 F8 28 0F 85  ....·..çÿÿH.ø(..
  00000000100045D0: 59 00 00 00 48 83 EC 20 E8 21 EB FF FF 48 83 C4  Y...H.? è!ëÿÿH.Ä
  00000000100045E0: 20 0F B7 05 76 E7 FF FF 48 83 F8 2A 0F 85 2A 00   .·.vçÿÿH.ø*..*.
  00000000100045F0: 00 00 31 C0 48 8B 4D 10 48 89 01 48 83 EC 20 E8  ..1ÀH.M.H..H.? è
  0000000010004600: FA EA FF FF 48 83 C4 20 48 83 EC 20 31 C9 E8 63  úêÿÿH.Ä H.? 1Éèc
  0000000010004610: FD FF FF 48 83 C4 20 E9 0C 00 00 00 B8 1C 00 00  ?ÿÿH.Ä é....¸...
  0000000010004620: 00 48 8B 4D 10 48 89 01 E9 8E 01 00 00 0F B7 05  .H.M.H..é.....·.
  0000000010004630: 2A E7 FF FF 48 83 F8 29 0F 85 1E 00 00 00 48 83  *çÿÿH.ø)......H.
  0000000010004640: EC 20 E8 B7 EA FF FF 48 83 C4 20 B8 2C 00 00 00  ? è·êÿÿH.Ä ¸,...
  0000000010004650: 48 8B 4D 10 48 89 01 E9 5F 01 00 00 0F B7 05 FB  H.M.H..é_....·.û
  0000000010004660: E6 FF FF 48 83 F8 2A 0F 85 1E 00 00 00 48 83 EC  æÿÿH.ø*......H.?
  0000000010004670: 20 E8 88 EA FF FF 48 83 C4 20 B8 01 00 00 00 48   è.êÿÿH.Ä ¸....H
  0000000010004680: 8B 4D 10 48 89 01 E9 30 01 00 00 0F B7 05 CC E6  .M.H..é0....·.?æ
  0000000010004690: FF FF 48 83 F8 2B 0F 85 1E 00 00 00 48 83 EC 20  ÿÿH.ø+......H.? 
  00000000100046A0: E8 59 EA FF FF 48 83 C4 20 B8 06 00 00 00 48 8B  èYêÿÿH.Ä ¸....H.
  00000000100046B0: 4D 10 48 89 01 E9 01 01 00 00 0F B7 05 9D E6 FF  M.H..é.....·..æÿ
  00000000100046C0: FF 48 83 F8 2C 0F 85 1E 00 00 00 48 83 EC 20 E8  ÿH.ø,......H.? è
  00000000100046D0: 2A EA FF FF 48 83 C4 20 B8 28 00 00 00 48 8B 4D  *êÿÿH.Ä ¸(...H.M
  00000000100046E0: 10 48 89 01 E9 D2 00 00 00 0F B7 05 6E E6 FF FF  .H..é?....·.næÿÿ
  00000000100046F0: 48 83 F8 2D 0F 85 1E 00 00 00 48 83 EC 20 E8 FB  H.ø-......H.? èû
  0000000010004700: E9 FF FF 48 83 C4 20 B8 07 00 00 00 48 8B 4D 10  éÿÿH.Ä ¸....H.M.
  0000000010004710: 48 89 01 E9 A3 00 00 00 0F B7 05 3F E6 FF FF 48  H..é£....·.?æÿÿH
  0000000010004720: 83 F8 2E 0F 85 4D 00 00 00 48 83 EC 20 E8 CC E9  .ø...M...H.? è?é
  0000000010004730: FF FF 48 83 C4 20 0F B7 05 21 E6 FF FF 48 83 F8  ÿÿH.Ä .·.!æÿÿH.ø
  0000000010004740: 2E 0F 85 1E 00 00 00 48 83 EC 20 E8 AE E9 FF FF  .......H.? è®éÿÿ
  0000000010004750: 48 83 C4 20 B8 2B 00 00 00 48 8B 4D 10 48 89 01  H.Ä ¸+...H.M.H..
  0000000010004760: E9 0C 00 00 00 B8 12 00 00 00 48 8B 4D 10 48 89  é....¸....H.M.H.
  0000000010004770: 01 E9 45 00 00 00 0F B7 05 E1 E5 FF FF 48 83 F8  .éE....·.áåÿÿH.ø
  0000000010004780: 2F 0F 85 1E 00 00 00 48 83 EC 20 E8 6E E9 FF FF  /......H.? ènéÿÿ
  0000000010004790: 48 83 C4 20 B8 02 00 00 00 48 8B 4D 10 48 89 01  H.Ä ¸....H.M.H..
  00000000100047A0: E9 16 00 00 00 48 83 EC 20 E8 50 E9 FF FF 48 83  é....H.? èPéÿÿH.
  00000000100047B0: C4 20 31 C0 48 8B 4D 10 48 89 01 E9 B5 01 00 00  Ä 1ÀH.M.H..éµ...
  00000000100047C0: 0F B7 05 97 E5 FF FF 48 83 F8 3A 0F 83 16 00 00  .·..åÿÿH.ø:.....
  00000000100047D0: 00 48 83 EC 20 48 8B 4D 10 E8 AE F0 FF FF 48 83  .H.? H.M.è®?ÿÿH.
  00000000100047E0: C4 20 E9 8E 01 00 00 0F B7 05 70 E5 FF FF 48 83  Ä é.....·.påÿÿH.
  00000000100047F0: F8 3A 0F 85 4D 00 00 00 48 83 EC 20 E8 FD E8 FF  ø:..M...H.? è?èÿ
  0000000010004800: FF 48 83 C4 20 0F B7 05 52 E5 FF FF 48 83 F8 3D  ÿH.Ä .·.RåÿÿH.ø=
  0000000010004810: 0F 85 1E 00 00 00 48 83 EC 20 E8 DF E8 FF FF 48  ......H.? èßèÿÿH
  0000000010004820: 83 C4 20 B8 2A 00 00 00 48 8B 4D 10 48 89 01 E9  .Ä ¸*...H.M.H..é
  0000000010004830: 0C 00 00 00 B8 29 00 00 00 48 8B 4D 10 48 89 01  ....¸)...H.M.H..
  0000000010004840: E9 30 01 00 00 0F B7 05 12 E5 FF FF 48 83 F8 3B  é0....·..åÿÿH.ø;
  0000000010004850: 0F 85 1E 00 00 00 48 83 EC 20 E8 9F E8 FF FF 48  ......H.? è.èÿÿH
  0000000010004860: 83 C4 20 B8 34 00 00 00 48 8B 4D 10 48 89 01 E9  .Ä ¸4...H.M.H..é
  0000000010004870: 01 01 00 00 0F B7 05 E3 E4 FF FF 48 83 F8 3C 0F  .....·.?äÿÿH.ø<.
  0000000010004880: 85 4D 00 00 00 48 83 EC 20 E8 70 E8 FF FF 48 83  .M...H.? èpèÿÿH.
  0000000010004890: C4 20 0F B7 05 C5 E4 FF FF 48 83 F8 3D 0F 85 1E  Ä .·.ÅäÿÿH.ø=...
  00000000100048A0: 00 00 00 48 83 EC 20 E8 52 E8 FF FF 48 83 C4 20  ...H.? èRèÿÿH.Ä 
  00000000100048B0: B8 0C 00 00 00 48 8B 4D 10 48 89 01 E9 0C 00 00  ¸....H.M.H..é...
  00000000100048C0: 00 B8 0B 00 00 00 48 8B 4D 10 48 89 01 E9 A3 00  .¸....H.M.H..é£.
  00000000100048D0: 00 00 0F B7 05 85 E4 FF FF 48 83 F8 3D 0F 85 1E  ...·..äÿÿH.ø=...
  00000000100048E0: 00 00 00 48 83 EC 20 E8 12 E8 FF FF 48 83 C4 20  ...H.? è.èÿÿH.Ä 
  00000000100048F0: B8 09 00 00 00 48 8B 4D 10 48 89 01 E9 74 00 00  ¸....H.M.H..ét..
  0000000010004900: 00 0F B7 05 56 E4 FF FF 48 83 F8 3E 0F 85 4D 00  ..·.VäÿÿH.ø>..M.
  0000000010004910: 00 00 48 83 EC 20 E8 E3 E7 FF FF 48 83 C4 20 0F  ..H.? è?çÿÿH.Ä .
  0000000010004920: B7 05 38 E4 FF FF 48 83 F8 3D 0F 85 1E 00 00 00  ·.8äÿÿH.ø=......
  0000000010004930: 48 83 EC 20 E8 C5 E7 FF FF 48 83 C4 20 B8 0E 00  H.? èÅçÿÿH.Ä ¸..
  0000000010004940: 00 00 48 8B 4D 10 48 89 01 E9 0C 00 00 00 B8 0D  ..H.M.H..é....¸.
  0000000010004950: 00 00 00 48 8B 4D 10 48 89 01 E9 16 00 00 00 48  ...H.M.H..é....H
  0000000010004960: 83 EC 20 E8 96 E7 FF FF 48 83 C4 20 31 C0 48 8B  .? è.çÿÿH.Ä 1ÀH.
  0000000010004970: 4D 10 48 89 01 E9 C7 01 00 00 0F B7 05 DD E3 FF  M.H..éÇ....·.??ÿ
  0000000010004980: FF 48 83 F8 5B 0F 83 16 00 00 00 48 83 EC 20 48  ÿH.ø[......H.? H
  0000000010004990: 8B 4D 10 E8 D0 E7 FF FF 48 83 C4 20 E9 A0 01 00  .M.è?çÿÿH.Ä é...
  00000000100049A0: 00 0F B7 05 B6 E3 FF FF 48 83 F8 61 0F 83 A8 00  ..·.¶?ÿÿH.øa..¨.
  00000000100049B0: 00 00 0F B7 05 A5 E3 FF FF 48 83 F8 5B 0F 85 11  ...·.¥?ÿÿH.ø[...
  00000000100049C0: 00 00 00 B8 1D 00 00 00 48 8B 4D 10 48 89 01 E9  ...¸....H.M.H..é
  00000000100049D0: 74 00 00 00 0F B7 05 83 E3 FF FF 48 83 F8 5D 0F  t....·..?ÿÿH.ø].
  00000000100049E0: 85 11 00 00 00 B8 2D 00 00 00 48 8B 4D 10 48 89  .....¸-...H.M.H.
  00000000100049F0: 01 E9 52 00 00 00 0F B7 05 61 E3 FF FF 48 83 F8  .éR....·.a?ÿÿH.ø
  0000000010004A00: 5E 0F 85 11 00 00 00 B8 11 00 00 00 48 8B 4D 10  ^......¸....H.M.
  0000000010004A10: 48 89 01 E9 30 00 00 00 0F B7 05 3F E3 FF FF 48  H..é0....·.??ÿÿH
  0000000010004A20: 83 F8 5F 0F 85 16 00 00 00 48 83 EC 20 48 8B 4D  .ø_......H.? H.M
  0000000010004A30: 10 E8 32 E7 FF FF 48 83 C4 20 E9 09 00 00 00 31  .è2çÿÿH.Ä é....1
  0000000010004A40: C0 48 8B 4D 10 48 89 01 48 83 EC 20 E8 AD E6 FF  ÀH.M.H..H.? è­æÿ
  0000000010004A50: FF 48 83 C4 20 E9 E7 00 00 00 0F B7 05 FD E2 FF  ÿH.Ä éç....·.?âÿ
  0000000010004A60: FF 48 83 F8 7B 0F 83 16 00 00 00 48 83 EC 20 48  ÿH.ø{......H.? H
  0000000010004A70: 8B 4D 10 E8 F0 E6 FF FF 48 83 C4 20 E9 C0 00 00  .M.è?æÿÿH.Ä éÀ..
  0000000010004A80: 00 0F B7 05 D6 E2 FF FF 48 83 F8 7B 0F 85 11 00  ..·.ÖâÿÿH.ø{....
  0000000010004A90: 00 00 B8 1E 00 00 00 48 8B 4D 10 48 89 01 E9 91  ..¸....H.M.H..é.
  0000000010004AA0: 00 00 00 0F B7 05 B4 E2 FF FF 48 83 F8 7D 0F 85  ....·.´âÿÿH.ø}..
  0000000010004AB0: 11 00 00 00 B8 2E 00 00 00 48 8B 4D 10 48 89 01  ....¸....H.M.H..
  0000000010004AC0: E9 6F 00 00 00 0F B7 05 92 E2 FF FF 48 83 F8 7C  éo....·..âÿÿH.ø|
  0000000010004AD0: 0F 85 11 00 00 00 B8 36 00 00 00 48 8B 4D 10 48  ......¸6...H.M.H
  0000000010004AE0: 89 01 E9 4D 00 00 00 0F B7 05 70 E2 FF FF 48 83  ..éM....·.pâÿÿH.
  0000000010004AF0: F8 7E 0F 85 11 00 00 00 B8 1B 00 00 00 48 8B 4D  ø~......¸....H.M
  0000000010004B00: 10 48 89 01 E9 2B 00 00 00 0F B7 05 4E E2 FF FF  .H..é+....·.Nâÿÿ
  0000000010004B10: 48 83 F8 7F 0F 85 11 00 00 00 B8 2B 00 00 00 48  H.ø.......¸+...H
  0000000010004B20: 8B 4D 10 48 89 01 E9 09 00 00 00 31 C0 48 8B 4D  .M.H..é....1ÀH.M
  0000000010004B30: 10 48 89 01 48 83 EC 20 E8 C1 E5 FF FF 48 83 C4  .H..H.? èÁåÿÿH.Ä
  0000000010004B40: 20 48 8B 45 10 48 8B 00 48 85 C0 0F 85 0F 00 00   H.E.H..H.À.....
  0000000010004B50: 00 0F B6 05 05 E2 FF FF 85 C0 0F 84 3B F9 FF FF  ..¶..âÿÿ.À..;ùÿÿ
  0000000010004B60: C9 C3 55 48 8B EC 56 57 48 89 4D 10 48 89 55 18  É?UH.?VWH.M.H.U.
  0000000010004B70: 4C 89 45 20 48 8D 3D CD E1 FF FF 48 8B 75 10 B9  L.E H.=ÍáÿÿH.u.¹
  0000000010004B80: 01 00 00 00 F3 48 A5 48 8B 45 20 48 89 05 BE E1  ....óH¥H.E H..¾á
  0000000010004B90: FF FF 31 C0 48 89 05 C5 E1 FF FF 48 83 EC 20 48  ÿÿ1ÀH..ÅáÿÿH.? H
  0000000010004BA0: 8B 4D 10 48 8B 55 18 4C 8B 45 20 FF 15 B7 CA FF  .M.H.U.L.E ÿ.·Êÿ
  0000000010004BB0: FF 48 83 C4 20 48 83 EC 20 E8 40 E5 FF FF 48 83  ÿH.Ä H.? è@åÿÿH.
  0000000010004BC0: C4 20 5F 5E C9 C3 55 48 8B EC 48 89 4D 10 48 89  Ä _^É?UH.?H.M.H.
  0000000010004BD0: 55 18 4C 89 45 20 48 83 EC 20 48 8B 4D 18 48 8B  U.L.E H.? H.M.H.
  0000000010004BE0: 55 20 4C 8B 05 57 E1 FF FF 49 83 F8 23 0F 83 05  U L..WáÿÿI.ø#...
  0000000010004BF0: 00 00 00 E9 08 00 00 00 B0 01 B9 53 26 00 00 CC  ...é....°.¹S&..?
  0000000010004C00: 4D 69 C0 88 00 00 00 4C 8D 0D 4A CE FF FF 4D 03  MiÀ....L..JÎÿÿM.
  0000000010004C10: C1 49 83 C0 08 41 B9 40 00 00 00 FF 15 3F CA FF  ÁI.À.A¹@...ÿ.?Êÿ
  0000000010004C20: FF 48 83 C4 20 48 8B 05 14 E1 FF FF 48 83 F8 23  ÿH.Ä H...áÿÿH.ø#
  0000000010004C30: 0F 83 05 00 00 00 E9 08 00 00 00 B0 01 B9 62 26  ......é....°.¹b&
  0000000010004C40: 00 00 CC 48 69 C0 88 00 00 00 48 8D 0D 07 CE FF  ..?HiÀ....H...Îÿ
  0000000010004C50: FF 48 03 C1 48 8B 4D 10 48 89 08 48 83 05 DD E0  ÿH.ÁH.M.H..H..?à
  0000000010004C60: FF FF 01 C9 C3 55 48 8B EC 31 C0 48 89 05 CE E0  ÿÿ.É?UH.?1ÀH..Îà
  0000000010004C70: FF FF 31 C0 48 89 05 75 E0 FF FF 31 C0 48 89 05  ÿÿ1ÀH..uàÿÿ1ÀH..
  0000000010004C80: 74 E0 FF FF 48 83 EC 20 B9 20 00 00 00 48 8D 15  tàÿÿH.? ¹ ...H..
  0000000010004C90: C6 C9 FF FF 41 B8 03 00 00 00 E8 27 FF FF FF 48  ÆÉÿÿA¸....è'ÿÿÿH
  0000000010004CA0: 83 C4 20 48 83 EC 20 B9 31 00 00 00 48 8D 15 A1  .Ä H.? ¹1...H..¡
  0000000010004CB0: C9 FF FF 41 B8 03 00 00 00 E8 08 FF FF FF 48 83  ÉÿÿA¸....è.ÿÿÿH.
  0000000010004CC0: C4 20 48 83 EC 20 B9 30 00 00 00 48 8D 15 7C C9  Ä H.? ¹0...H..|É
  0000000010004CD0: FF FF 41 B8 03 00 00 00 E8 E9 FE FF FF 48 83 C4  ÿÿA¸....èé?ÿÿH.Ä
  0000000010004CE0: 20 48 83 EC 20 B9 08 00 00 00 48 8D 15 57 C9 FF   H.? ¹....H..WÉÿ
  0000000010004CF0: FF 41 B8 03 00 00 00 E8 CA FE FF FF 48 83 C4 20  ÿA¸....èÊ?ÿÿH.Ä 
  0000000010004D00: 48 83 EC 20 B9 32 00 00 00 48 8D 15 32 C9 FF FF  H.? ¹2...H..2Éÿÿ
  0000000010004D10: 41 B8 03 00 00 00 E8 AB FE FF FF 48 83 C4 20 48  A¸....è«?ÿÿH.Ä H
  0000000010004D20: 83 EC 20 B9 0F 00 00 00 48 8D 15 0D C9 FF FF 41  .? ¹....H...ÉÿÿA
  0000000010004D30: B8 03 00 00 00 E8 8C FE FF FF 48 83 C4 20 48 83  ¸....è.?ÿÿH.Ä H.
  0000000010004D40: EC 20 B9 10 00 00 00 48 8D 15 E8 C8 FF FF 41 B8  ? ¹....H..èÈÿÿA¸
  0000000010004D50: 03 00 00 00 E8 6D FE FF FF 48 83 C4 20 48 83 EC  ....èm?ÿÿH.Ä H.?
  0000000010004D60: 20 B9 33 00 00 00 48 8D 15 C3 C8 FF FF 41 B8 03   ¹3...H..?ÈÿÿA¸.
  0000000010004D70: 00 00 00 E8 4E FE FF FF 48 83 C4 20 48 8B 05 BD  ...èN?ÿÿH.Ä H..½
  0000000010004D80: DF FF FF 48 89 05 76 DF FF FF 48 83 EC 20 B9 35  ßÿÿH..vßÿÿH.? ¹5
  0000000010004D90: 00 00 00 48 8D 15 8E C8 FF FF 41 B8 04 00 00 00  ...H...ÈÿÿA¸....
  0000000010004DA0: E8 21 FE FF FF 48 83 C4 20 48 83 EC 20 B9 19 00  è!?ÿÿH.Ä H.? ¹..
  0000000010004DB0: 00 00 48 8D 15 67 C8 FF FF 41 B8 04 00 00 00 E8  ..H..gÈÿÿA¸....è
  0000000010004DC0: 02 FE FF FF 48 83 C4 20 48 83 EC 20 B9 48 00 00  .?ÿÿH.Ä H.? ¹H..
  0000000010004DD0: 00 48 8D 15 40 C8 FF FF 41 B8 04 00 00 00 E8 E3  .H..@ÈÿÿA¸....è?
  0000000010004DE0: FD FF FF 48 83 C4 20 48 83 EC 20 B9 03 00 00 00  ?ÿÿH.Ä H.? ¹....
  0000000010004DF0: 48 8D 15 19 C8 FF FF 41 B8 04 00 00 00 E8 C4 FD  H...ÈÿÿA¸....èÄ?
  0000000010004E00: FF FF 48 83 C4 20 48 83 EC 20 B9 04 00 00 00 48  ÿÿH.Ä H.? ¹....H
  0000000010004E10: 8D 15 F2 C7 FF FF 41 B8 04 00 00 00 E8 A5 FD FF  ..?ÇÿÿA¸....è¥?ÿ
  0000000010004E20: FF 48 83 C4 20 48 83 EC 20 B9 25 00 00 00 48 8D  ÿH.Ä H.? ¹%...H.
  0000000010004E30: 15 CB C7 FF FF 41 B8 04 00 00 00 E8 86 FD FF FF  .ËÇÿÿA¸....è.?ÿÿ
  0000000010004E40: 48 83 C4 20 48 8B 05 F5 DE FF FF 48 89 05 B6 DE  H.Ä H..??ÿÿH..¶?
  0000000010004E50: FF FF 48 83 EC 20 B9 37 00 00 00 48 8D 15 94 C7  ÿÿH.? ¹7...H...Ç
  0000000010004E60: FF FF 41 B8 05 00 00 00 E8 59 FD FF FF 48 83 C4  ÿÿA¸....èY?ÿÿH.Ä
  0000000010004E70: 20 48 83 EC 20 B9 2F 00 00 00 48 8D 15 6B C7 FF   H.? ¹/...H..kÇÿ
  0000000010004E80: FF 41 B8 05 00 00 00 E8 3A FD FF FF 48 83 C4 20  ÿA¸....è:?ÿÿH.Ä 
  0000000010004E90: 48 83 EC 20 B9 18 00 00 00 48 8D 15 42 C7 FF FF  H.? ¹....H..BÇÿÿ
  0000000010004EA0: 41 B8 05 00 00 00 E8 1B FD FF FF 48 83 C4 20 48  A¸....è.?ÿÿH.Ä H
  0000000010004EB0: 83 EC 20 B9 47 00 00 00 48 8D 15 19 C7 FF FF 41  .? ¹G...H...ÇÿÿA
  0000000010004EC0: B8 05 00 00 00 E8 FC FC FF FF 48 83 C4 20 48 83  ¸....èüüÿÿH.Ä H.
  0000000010004ED0: EC 20 B9 24 00 00 00 48 8D 15 F0 C6 FF FF 41 B8  ? ¹$...H..?ÆÿÿA¸
  0000000010004EE0: 05 00 00 00 E8 DD FC FF FF 48 83 C4 20 48 8B 05  ....è?üÿÿH.Ä H..
  0000000010004EF0: 4C DE FF FF 48 89 05 15 DE FF FF 48 83 EC 20 B9  L?ÿÿH...?ÿÿH.? ¹
  0000000010004F00: 38 00 00 00 48 8D 15 B7 C6 FF FF 41 B8 06 00 00  8...H..·ÆÿÿA¸...
  0000000010004F10: 00 E8 B0 FC FF FF 48 83 C4 20 48 83 EC 20 B9 17  .è°üÿÿH.Ä H.? ¹.
  0000000010004F20: 00 00 00 48 8D 15 8C C6 FF FF 41 B8 06 00 00 00  ...H...ÆÿÿA¸....
  0000000010004F30: E8 91 FC FF FF 48 83 C4 20 48 83 EC 20 B9 3C 00  è.üÿÿH.Ä H.? ¹<.
  0000000010004F40: 00 00 48 8D 15 61 C6 FF FF 41 B8 06 00 00 00 E8  ..H..aÆÿÿA¸....è
  0000000010004F50: 72 FC FF FF 48 83 C4 20 48 83 EC 20 B9 4A 00 00  rüÿÿH.Ä H.? ¹J..
  0000000010004F60: 00 48 8D 15 36 C6 FF FF 41 B8 06 00 00 00 E8 53  .H..6ÆÿÿA¸....èS
  0000000010004F70: FC FF FF 48 83 C4 20 48 83 EC 20 B9 46 00 00 00  üÿÿH.Ä H.? ¹F...
  0000000010004F80: 48 8D 15 0B C6 FF FF 41 B8 06 00 00 00 E8 34 FC  H...ÆÿÿA¸....è4ü
  0000000010004F90: FF FF 48 83 C4 20 48 83 EC 20 B9 39 00 00 00 48  ÿÿH.Ä H.? ¹9...H
  0000000010004FA0: 8D 15 E0 C5 FF FF 41 B8 06 00 00 00 E8 15 FC FF  ..àÅÿÿA¸....è.üÿ
  0000000010004FB0: FF 48 83 C4 20 48 83 EC 20 B9 22 00 00 00 48 8D  ÿH.Ä H.? ¹"...H.
  0000000010004FC0: 15 B5 C5 FF FF 41 B8 06 00 00 00 E8 F6 FB FF FF  .µÅÿÿA¸....èöûÿÿ
  0000000010004FD0: 48 83 C4 20 48 8B 05 65 DD FF FF 48 89 05 36 DD  H.Ä H..e?ÿÿH..6?
  0000000010004FE0: FF FF 48 83 EC 20 B9 3D 00 00 00 48 8D 15 7A C5  ÿÿH.? ¹=...H..zÅ
  0000000010004FF0: FF FF 41 B8 07 00 00 00 E8 C9 FB FF FF 48 83 C4  ÿÿA¸....èÉûÿÿH.Ä
  0000000010005000: 20 48 83 EC 20 B9 23 00 00 00 48 8D 15 4D C5 FF   H.? ¹#...H..MÅÿ
  0000000010005010: FF 41 B8 07 00 00 00 E8 AA FB FF FF 48 83 C4 20  ÿA¸....èªûÿÿH.Ä 
  0000000010005020: 48 83 EC 20 B9 4B 00 00 00 48 8D 15 20 C5 FF FF  H.? ¹K...H.. Åÿÿ
  0000000010005030: 41 B8 07 00 00 00 E8 8B FB FF FF 48 83 C4 20 48  A¸....è.ûÿÿH.Ä H
  0000000010005040: 83 EC 20 B9 4C 00 00 00 48 8D 15 F3 C4 FF FF 41  .? ¹L...H..óÄÿÿA
  0000000010005050: B8 07 00 00 00 E8 6C FB FF FF 48 83 C4 20 48 83  ¸....èlûÿÿH.Ä H.
  0000000010005060: EC 20 B9 4D 00 00 00 48 8D 15 C6 C4 FF FF 41 B8  ? ¹M...H..ÆÄÿÿA¸
  0000000010005070: 07 00 00 00 E8 4D FB FF FF 48 83 C4 20 48 8B 05  ....èMûÿÿH.Ä H..
  0000000010005080: BC DC FF FF 48 89 05 95 DC FF FF 48 83 EC 20 B9  ¼ÜÿÿH...ÜÿÿH.? ¹
  0000000010005090: 3E 00 00 00 48 8D 15 89 C4 FF FF 41 B8 08 00 00  >...H...ÄÿÿA¸...
  00000000100050A0: 00 E8 20 FB FF FF 48 83 C4 20 48 83 EC 20 B9 3F  .è ûÿÿH.Ä H.? ¹?
  00000000100050B0: 00 00 00 48 8D 15 5A C4 FF FF 41 B8 08 00 00 00  ...H..ZÄÿÿA¸....
  00000000100050C0: E8 01 FB FF FF 48 83 C4 20 48 8B 05 70 DC FF FF  è.ûÿÿH.Ä H..pÜÿÿ
  00000000100050D0: 48 89 05 51 DC FF FF 48 8B 05 62 DC FF FF 48 89  H..QÜÿÿH..bÜÿÿH.
  00000000100050E0: 05 4B DC FF FF 48 83 EC 20 B9 49 00 00 00 48 8D  .KÜÿÿH.? ¹I...H.
  00000000100050F0: 15 0B C4 FF FF 41 B8 0A 00 00 00 E8 C6 FA FF FF  ..ÄÿÿA¸....èÆúÿÿ
  0000000010005100: 48 83 C4 20 48 8B 05 35 DC FF FF 48 89 05 26 DC  H.Ä H..5ÜÿÿH..&Ü
  0000000010005110: FF FF C9 C3 83 FA 01 0F 84 01 00 00 00 C3 56 57  ÿÿÉ?.ú.......?VW
  0000000010005120: 48 83 EC 28 FF 15 06 C9 FF FF 48 89 05 DF C8 FF  H.?(ÿ..ÉÿÿH..ßÈÿ
  0000000010005130: FF 48 8D 0D B6 C3 FF FF FF 15 E2 C8 FF FF 48 8B  ÿH..¶?ÿÿÿ.âÈÿÿH.
  0000000010005140: F0 48 B8 00 00 00 00 00 00 00 00 48 3B 86 F0 03  ?H¸........H;.?.
  0000000010005150: 00 00 0F 85 05 00 00 00 E9 08 00 00 00 B0 05 B9  ........é....°.¹
  0000000010005160: 8A 2A 00 00 CC 48 B8 00 00 00 00 00 00 00 00 48  .*..?H¸........H
  0000000010005170: 3B 86 F8 03 00 00 0F 85 05 00 00 00 E9 08 00 00  ;.ø.........é...
  0000000010005180: 00 B0 05 B9 8A 2A 00 00 CC 48 8B CE BA 20 00 00  .°.¹.*..?H.Îº ..
  0000000010005190: 00 FF 15 91 C8 FF FF 48 89 05 AA C5 FF FF 48 8B  .ÿ..ÈÿÿH..ªÅÿÿH.
  00000000100051A0: CE BA 1B 00 00 00 FF 15 7C C8 FF FF 48 89 05 AD  Îº....ÿ.|ÈÿÿH..­
  00000000100051B0: C4 FF FF 48 8D 0D 1C C3 FF FF FF 15 60 C8 FF FF  ÄÿÿH...?ÿÿÿ.`Èÿÿ
  00000000100051C0: 48 8B F0 48 B8 00 00 00 00 00 00 00 00 48 3B 86  H.?H¸........H;.
  00000000100051D0: F0 03 00 00 0F 85 05 00 00 00 E9 08 00 00 00 B0  ?.........é....°
  00000000100051E0: 05 B9 8A 2A 00 00 CC 48 B8 00 00 00 00 00 00 00  .¹.*..?H¸.......
  00000000100051F0: 00 48 3B 86 F8 03 00 00 0F 85 05 00 00 00 E9 08  .H;.ø.........é.
  0000000010005200: 00 00 00 B0 05 B9 8A 2A 00 00 CC 48 8B CE BA 05  ...°.¹.*..?H.Îº.
  0000000010005210: 00 00 00 FF 15 0F C8 FF FF 48 89 05 30 C7 FF FF  ...ÿ..ÈÿÿH..0Çÿÿ
  0000000010005220: 48 8B CE BA 03 00 00 00 FF 15 FA C7 FF FF 48 89  H.Îº....ÿ.úÇÿÿH.
  0000000010005230: 05 3B C7 FF FF 48 8B CE BA 02 00 00 00 FF 15 E5  .;ÇÿÿH.Îº....ÿ.å
  0000000010005240: C7 FF FF 48 89 05 F6 C6 FF FF 48 8D 0D 75 C2 FF  ÇÿÿH..öÆÿÿH..uÂÿ
  0000000010005250: FF FF 15 C9 C7 FF FF 48 8B F0 48 B8 00 00 00 00  ÿÿ.ÉÇÿÿH.?H¸....
  0000000010005260: 00 00 00 00 48 3B 86 F0 03 00 00 0F 85 05 00 00  ....H;.?........
  0000000010005270: 00 E9 08 00 00 00 B0 05 B9 8A 2A 00 00 CC 48 B8  .é....°.¹.*..?H¸
  0000000010005280: 00 00 00 00 00 00 00 00 48 3B 86 F8 03 00 00 0F  ........H;.ø....
  0000000010005290: 85 05 00 00 00 E9 08 00 00 00 B0 05 B9 8A 2A 00  .....é....°.¹.*.
  00000000100052A0: 00 CC 48 8B CE BA 14 00 00 00 FF 15 78 C7 FF FF  .?H.Îº....ÿ.xÇÿÿ
  00000000100052B0: 48 89 05 B1 C3 FF FF 48 8B CE BA 13 00 00 00 FF  H..±?ÿÿH.Îº....ÿ
  00000000100052C0: 15 63 C7 FF FF 48 89 05 B4 C6 FF FF 48 8B CE BA  .cÇÿÿH..´ÆÿÿH.Îº
  00000000100052D0: 08 00 00 00 FF 15 4E C7 FF FF 48 89 05 57 C6 FF  ....ÿ.NÇÿÿH..WÆÿ
  00000000100052E0: FF 48 8B CE BA 01 00 00 00 FF 15 39 C7 FF FF 48  ÿH.Îº....ÿ.9ÇÿÿH
  00000000100052F0: 89 05 82 C6 FF FF E8 6A F9 FF FF B8 01 00 00 00  ...Æÿÿèjùÿÿ¸....
  0000000010005300: 48 83 C4 28 5F 5E C3                             H.Ä(_^?

SECTION HEADER #3
  .idata name
     130 virtual size
    6000 virtual address (0000000010006000 to 000000001000612F)
     200 size of raw data
    2800 file pointer to raw data (00002800 to 000029FF)
       0 file pointer to relocation table
       0 file pointer to line numbers
       0 number of relocations
       0 number of line numbers
C0000040 flags
         Initialized Data
         Read Write

RAW DATA #3
  0000000010006000: 28 60 00 00 00 00 00 00 00 00 00 00 60 60 00 00  (`..........``..
  0000000010006010: 18 1A 00 00 00 00 00 00 00 00 00 00 00 00 00 00  ................
  0000000010006020: 00 00 00 00 00 00 00 00 70 60 00 00 00 00 00 00  ........p`......
  0000000010006030: 90 60 00 00 00 00 00 00 B0 60 00 00 00 00 00 00  .`......°`......
  0000000010006040: D0 60 00 00 00 00 00 00 F0 60 00 00 00 00 00 00  ?`......?`......
  0000000010006050: 10 61 00 00 00 00 00 00 00 00 00 00 00 00 00 00  .a..............
  0000000010006060: 4B 45 52 4E 45 4C 33 32 2E 44 4C 4C 00 00 00 00  KERNEL32.DLL....
  0000000010006070: 00 00 45 78 69 74 50 72 6F 63 65 73 73 00 00 00  ..ExitProcess...
  0000000010006080: 00 00 00 00 00 00 00 00 00 00 00 00 00 00 00 00  ................
  0000000010006090: 00 00 4C 6F 61 64 4C 69 62 72 61 72 79 57 00 00  ..LoadLibraryW..
  00000000100060A0: 00 00 00 00 00 00 00 00 00 00 00 00 00 00 00 00  ................
  00000000100060B0: 00 00 47 65 74 50 72 6F 63 41 64 64 72 65 73 73  ..GetProcAddress
  00000000100060C0: 00 00 00 00 00 00 00 00 00 00 00 00 00 00 00 00  ................
  00000000100060D0: 00 00 47 65 74 50 72 6F 63 65 73 73 48 65 61 70  ..GetProcessHeap
  00000000100060E0: 00 00 00 00 00 00 00 00 00 00 00 00 00 00 00 00  ................
  00000000100060F0: 00 00 48 65 61 70 41 6C 6C 6F 63 00 00 00 00 00  ..HeapAlloc.....
  0000000010006100: 00 00 00 00 00 00 00 00 00 00 00 00 00 00 00 00  ................
  0000000010006110: 00 00 48 65 61 70 46 72 65 65 00 00 00 00 00 00  ..HeapFree......
  0000000010006120: 00 00 00 00 00 00 00 00 00 00 00 00 00 00 00 00  ................

  Section contains the following imports:

    KERNEL32.DLL
              10001A18 Import Address Table
              10006028 Import Name Table
                     0 time date stamp
                     0 Index of first forwarder reference

                           0 ExitProcess
                           0 LoadLibraryW
                           0 GetProcAddress
                           0 GetProcessHeap
                           0 HeapAlloc
                           0 HeapFree

SECTION HEADER #4
  .reloc name
       C virtual size
    7000 virtual address (0000000010007000 to 000000001000700B)
     200 size of raw data
    3600 file pointer to raw data (00003600 to 000037FF)
       0 file pointer to relocation table
       0 file pointer to line numbers
       0 number of relocations
       0 number of line numbers
42000040 flags
         Initialized Data
         Discardable
         Read Only

RAW DATA #4
  0000000010007000: 04 00 00 00 0C 00 00 00 00 00 00 00              ............

BASE RELOCATIONS #4
       4 RVA,        C SizeOfBlock
       0  ABS                        
       0  ABS                        

SECTION HEADER #5
  .edata name
      5C virtual size
    8000 virtual address (0000000010008000 to 000000001000805B)
     200 size of raw data
    3800 file pointer to raw data (00003800 to 000039FF)
       0 file pointer to relocation table
       0 file pointer to line numbers
       0 number of relocations
       0 number of line numbers
40000040 flags
         Initialized Data
         Read Only

RAW DATA #5
  0000000010008000: 00 00 00 00 00 00 00 00 00 00 00 00 50 80 00 00  ............P...
  0000000010008010: 01 00 00 00 0A 00 00 00 00 00 00 00 28 80 00 00  ............(...
  0000000010008020: 00 00 00 00 00 00 00 00 F8 2F 00 00 F0 2F 00 00  ........ø/..?/..
  0000000010008030: EC 2F 00 00 6C 2F 00 00 6C 2D 00 00 60 2D 00 00  ?/..l/..l-..`-..
  0000000010008040: 00 30 00 00 22 30 00 00 93 44 00 00 62 4B 00 00  .0.."0...D..bK..
  0000000010008050: 53 63 61 6E 6E 65 72 2E 64 6C 6C 00              Scanner.dll.

  Section contains the following exports for Scanner.dll

    00000000 characteristics
           0 time date stamp Thu Jan  1 07:00:00 1970
        0.00 version
           1 ordinal base
          10 number of functions
           0 number of names

    ordinal hint RVA      name

          1      00002FF8 [NONAME]
          2      00002FF0 [NONAME]
          3      00002FEC [NONAME]
          4      00002F6C [NONAME]
          5      00002D6C [NONAME]
          6      00002D60 [NONAME]
          7      00003000 [NONAME]
          8      00003022 [NONAME]
          9      00004493 [NONAME]
         10      00004B62 [NONAME]

  Summary

        2000 .data
        1000 .edata
        1000 .idata
        1000 .reloc
        3000 .text
